
ctarget:     file format elf64-x86-64


Disassembly of section .init:

0000000000400c88 <_init>:
  400c88:	48 83 ec 08          	sub    $0x8,%rsp
  400c8c:	48 8b 05 65 43 20 00 	mov    0x204365(%rip),%rax        # 604ff8 <__gmon_start__>
  400c93:	48 85 c0             	test   %rax,%rax
  400c96:	74 02                	je     400c9a <_init+0x12>
  400c98:	ff d0                	callq  *%rax
  400c9a:	48 83 c4 08          	add    $0x8,%rsp
  400c9e:	c3                   	retq   

Disassembly of section .plt:

0000000000400ca0 <.plt>:
  400ca0:	ff 35 62 43 20 00    	pushq  0x204362(%rip)        # 605008 <_GLOBAL_OFFSET_TABLE_+0x8>
  400ca6:	ff 25 64 43 20 00    	jmpq   *0x204364(%rip)        # 605010 <_GLOBAL_OFFSET_TABLE_+0x10>
  400cac:	0f 1f 40 00          	nopl   0x0(%rax)

0000000000400cb0 <strcasecmp@plt>:
  400cb0:	ff 25 62 43 20 00    	jmpq   *0x204362(%rip)        # 605018 <strcasecmp@GLIBC_2.2.5>
  400cb6:	68 00 00 00 00       	pushq  $0x0
  400cbb:	e9 e0 ff ff ff       	jmpq   400ca0 <.plt>

0000000000400cc0 <__errno_location@plt>:
  400cc0:	ff 25 5a 43 20 00    	jmpq   *0x20435a(%rip)        # 605020 <__errno_location@GLIBC_2.2.5>
  400cc6:	68 01 00 00 00       	pushq  $0x1
  400ccb:	e9 d0 ff ff ff       	jmpq   400ca0 <.plt>

0000000000400cd0 <srandom@plt>:
  400cd0:	ff 25 52 43 20 00    	jmpq   *0x204352(%rip)        # 605028 <srandom@GLIBC_2.2.5>
  400cd6:	68 02 00 00 00       	pushq  $0x2
  400cdb:	e9 c0 ff ff ff       	jmpq   400ca0 <.plt>

0000000000400ce0 <strncmp@plt>:
  400ce0:	ff 25 4a 43 20 00    	jmpq   *0x20434a(%rip)        # 605030 <strncmp@GLIBC_2.2.5>
  400ce6:	68 03 00 00 00       	pushq  $0x3
  400ceb:	e9 b0 ff ff ff       	jmpq   400ca0 <.plt>

0000000000400cf0 <strcpy@plt>:
  400cf0:	ff 25 42 43 20 00    	jmpq   *0x204342(%rip)        # 605038 <strcpy@GLIBC_2.2.5>
  400cf6:	68 04 00 00 00       	pushq  $0x4
  400cfb:	e9 a0 ff ff ff       	jmpq   400ca0 <.plt>

0000000000400d00 <puts@plt>:
  400d00:	ff 25 3a 43 20 00    	jmpq   *0x20433a(%rip)        # 605040 <puts@GLIBC_2.2.5>
  400d06:	68 05 00 00 00       	pushq  $0x5
  400d0b:	e9 90 ff ff ff       	jmpq   400ca0 <.plt>

0000000000400d10 <write@plt>:
  400d10:	ff 25 32 43 20 00    	jmpq   *0x204332(%rip)        # 605048 <write@GLIBC_2.2.5>
  400d16:	68 06 00 00 00       	pushq  $0x6
  400d1b:	e9 80 ff ff ff       	jmpq   400ca0 <.plt>

0000000000400d20 <__stack_chk_fail@plt>:
  400d20:	ff 25 2a 43 20 00    	jmpq   *0x20432a(%rip)        # 605050 <__stack_chk_fail@GLIBC_2.4>
  400d26:	68 07 00 00 00       	pushq  $0x7
  400d2b:	e9 70 ff ff ff       	jmpq   400ca0 <.plt>

0000000000400d30 <mmap@plt>:
  400d30:	ff 25 22 43 20 00    	jmpq   *0x204322(%rip)        # 605058 <mmap@GLIBC_2.2.5>
  400d36:	68 08 00 00 00       	pushq  $0x8
  400d3b:	e9 60 ff ff ff       	jmpq   400ca0 <.plt>

0000000000400d40 <memset@plt>:
  400d40:	ff 25 1a 43 20 00    	jmpq   *0x20431a(%rip)        # 605060 <memset@GLIBC_2.2.5>
  400d46:	68 09 00 00 00       	pushq  $0x9
  400d4b:	e9 50 ff ff ff       	jmpq   400ca0 <.plt>

0000000000400d50 <alarm@plt>:
  400d50:	ff 25 12 43 20 00    	jmpq   *0x204312(%rip)        # 605068 <alarm@GLIBC_2.2.5>
  400d56:	68 0a 00 00 00       	pushq  $0xa
  400d5b:	e9 40 ff ff ff       	jmpq   400ca0 <.plt>

0000000000400d60 <close@plt>:
  400d60:	ff 25 0a 43 20 00    	jmpq   *0x20430a(%rip)        # 605070 <close@GLIBC_2.2.5>
  400d66:	68 0b 00 00 00       	pushq  $0xb
  400d6b:	e9 30 ff ff ff       	jmpq   400ca0 <.plt>

0000000000400d70 <read@plt>:
  400d70:	ff 25 02 43 20 00    	jmpq   *0x204302(%rip)        # 605078 <read@GLIBC_2.2.5>
  400d76:	68 0c 00 00 00       	pushq  $0xc
  400d7b:	e9 20 ff ff ff       	jmpq   400ca0 <.plt>

0000000000400d80 <gethostbyname2@plt>:
  400d80:	ff 25 fa 42 20 00    	jmpq   *0x2042fa(%rip)        # 605080 <gethostbyname2@GLIBC_2.2.5>
  400d86:	68 0d 00 00 00       	pushq  $0xd
  400d8b:	e9 10 ff ff ff       	jmpq   400ca0 <.plt>

0000000000400d90 <inet_addr@plt>:
  400d90:	ff 25 f2 42 20 00    	jmpq   *0x2042f2(%rip)        # 605088 <inet_addr@GLIBC_2.2.5>
  400d96:	68 0e 00 00 00       	pushq  $0xe
  400d9b:	e9 00 ff ff ff       	jmpq   400ca0 <.plt>

0000000000400da0 <signal@plt>:
  400da0:	ff 25 ea 42 20 00    	jmpq   *0x2042ea(%rip)        # 605090 <signal@GLIBC_2.2.5>
  400da6:	68 0f 00 00 00       	pushq  $0xf
  400dab:	e9 f0 fe ff ff       	jmpq   400ca0 <.plt>

0000000000400db0 <__memmove_chk@plt>:
  400db0:	ff 25 e2 42 20 00    	jmpq   *0x2042e2(%rip)        # 605098 <__memmove_chk@GLIBC_2.3.4>
  400db6:	68 10 00 00 00       	pushq  $0x10
  400dbb:	e9 e0 fe ff ff       	jmpq   400ca0 <.plt>

0000000000400dc0 <strtol@plt>:
  400dc0:	ff 25 da 42 20 00    	jmpq   *0x2042da(%rip)        # 6050a0 <strtol@GLIBC_2.2.5>
  400dc6:	68 11 00 00 00       	pushq  $0x11
  400dcb:	e9 d0 fe ff ff       	jmpq   400ca0 <.plt>

0000000000400dd0 <memcpy@plt>:
  400dd0:	ff 25 d2 42 20 00    	jmpq   *0x2042d2(%rip)        # 6050a8 <memcpy@GLIBC_2.14>
  400dd6:	68 12 00 00 00       	pushq  $0x12
  400ddb:	e9 c0 fe ff ff       	jmpq   400ca0 <.plt>

0000000000400de0 <time@plt>:
  400de0:	ff 25 ca 42 20 00    	jmpq   *0x2042ca(%rip)        # 6050b0 <time@GLIBC_2.2.5>
  400de6:	68 13 00 00 00       	pushq  $0x13
  400deb:	e9 b0 fe ff ff       	jmpq   400ca0 <.plt>

0000000000400df0 <random@plt>:
  400df0:	ff 25 c2 42 20 00    	jmpq   *0x2042c2(%rip)        # 6050b8 <random@GLIBC_2.2.5>
  400df6:	68 14 00 00 00       	pushq  $0x14
  400dfb:	e9 a0 fe ff ff       	jmpq   400ca0 <.plt>

0000000000400e00 <_IO_getc@plt>:
  400e00:	ff 25 ba 42 20 00    	jmpq   *0x2042ba(%rip)        # 6050c0 <_IO_getc@GLIBC_2.2.5>
  400e06:	68 15 00 00 00       	pushq  $0x15
  400e0b:	e9 90 fe ff ff       	jmpq   400ca0 <.plt>

0000000000400e10 <__isoc99_sscanf@plt>:
  400e10:	ff 25 b2 42 20 00    	jmpq   *0x2042b2(%rip)        # 6050c8 <__isoc99_sscanf@GLIBC_2.7>
  400e16:	68 16 00 00 00       	pushq  $0x16
  400e1b:	e9 80 fe ff ff       	jmpq   400ca0 <.plt>

0000000000400e20 <munmap@plt>:
  400e20:	ff 25 aa 42 20 00    	jmpq   *0x2042aa(%rip)        # 6050d0 <munmap@GLIBC_2.2.5>
  400e26:	68 17 00 00 00       	pushq  $0x17
  400e2b:	e9 70 fe ff ff       	jmpq   400ca0 <.plt>

0000000000400e30 <__printf_chk@plt>:
  400e30:	ff 25 a2 42 20 00    	jmpq   *0x2042a2(%rip)        # 6050d8 <__printf_chk@GLIBC_2.3.4>
  400e36:	68 18 00 00 00       	pushq  $0x18
  400e3b:	e9 60 fe ff ff       	jmpq   400ca0 <.plt>

0000000000400e40 <fopen@plt>:
  400e40:	ff 25 9a 42 20 00    	jmpq   *0x20429a(%rip)        # 6050e0 <fopen@GLIBC_2.2.5>
  400e46:	68 19 00 00 00       	pushq  $0x19
  400e4b:	e9 50 fe ff ff       	jmpq   400ca0 <.plt>

0000000000400e50 <getopt@plt>:
  400e50:	ff 25 92 42 20 00    	jmpq   *0x204292(%rip)        # 6050e8 <getopt@GLIBC_2.2.5>
  400e56:	68 1a 00 00 00       	pushq  $0x1a
  400e5b:	e9 40 fe ff ff       	jmpq   400ca0 <.plt>

0000000000400e60 <strtoul@plt>:
  400e60:	ff 25 8a 42 20 00    	jmpq   *0x20428a(%rip)        # 6050f0 <strtoul@GLIBC_2.2.5>
  400e66:	68 1b 00 00 00       	pushq  $0x1b
  400e6b:	e9 30 fe ff ff       	jmpq   400ca0 <.plt>

0000000000400e70 <gethostname@plt>:
  400e70:	ff 25 82 42 20 00    	jmpq   *0x204282(%rip)        # 6050f8 <gethostname@GLIBC_2.2.5>
  400e76:	68 1c 00 00 00       	pushq  $0x1c
  400e7b:	e9 20 fe ff ff       	jmpq   400ca0 <.plt>

0000000000400e80 <exit@plt>:
  400e80:	ff 25 7a 42 20 00    	jmpq   *0x20427a(%rip)        # 605100 <exit@GLIBC_2.2.5>
  400e86:	68 1d 00 00 00       	pushq  $0x1d
  400e8b:	e9 10 fe ff ff       	jmpq   400ca0 <.plt>

0000000000400e90 <connect@plt>:
  400e90:	ff 25 72 42 20 00    	jmpq   *0x204272(%rip)        # 605108 <connect@GLIBC_2.2.5>
  400e96:	68 1e 00 00 00       	pushq  $0x1e
  400e9b:	e9 00 fe ff ff       	jmpq   400ca0 <.plt>

0000000000400ea0 <__fprintf_chk@plt>:
  400ea0:	ff 25 6a 42 20 00    	jmpq   *0x20426a(%rip)        # 605110 <__fprintf_chk@GLIBC_2.3.4>
  400ea6:	68 1f 00 00 00       	pushq  $0x1f
  400eab:	e9 f0 fd ff ff       	jmpq   400ca0 <.plt>

0000000000400eb0 <__sprintf_chk@plt>:
  400eb0:	ff 25 62 42 20 00    	jmpq   *0x204262(%rip)        # 605118 <__sprintf_chk@GLIBC_2.3.4>
  400eb6:	68 20 00 00 00       	pushq  $0x20
  400ebb:	e9 e0 fd ff ff       	jmpq   400ca0 <.plt>

0000000000400ec0 <socket@plt>:
  400ec0:	ff 25 5a 42 20 00    	jmpq   *0x20425a(%rip)        # 605120 <socket@GLIBC_2.2.5>
  400ec6:	68 21 00 00 00       	pushq  $0x21
  400ecb:	e9 d0 fd ff ff       	jmpq   400ca0 <.plt>

Disassembly of section .text:

0000000000400ed0 <_start>:
  400ed0:	31 ed                	xor    %ebp,%ebp
  400ed2:	49 89 d1             	mov    %rdx,%r9
  400ed5:	5e                   	pop    %rsi
  400ed6:	48 89 e2             	mov    %rsp,%rdx
  400ed9:	48 83 e4 f0          	and    $0xfffffffffffffff0,%rsp
  400edd:	50                   	push   %rax
  400ede:	54                   	push   %rsp
  400edf:	49 c7 c0 90 2f 40 00 	mov    $0x402f90,%r8
  400ee6:	48 c7 c1 20 2f 40 00 	mov    $0x402f20,%rcx
  400eed:	48 c7 c7 de 11 40 00 	mov    $0x4011de,%rdi
  400ef4:	ff 15 f6 40 20 00    	callq  *0x2040f6(%rip)        # 604ff0 <__libc_start_main@GLIBC_2.2.5>
  400efa:	f4                   	hlt    
  400efb:	0f 1f 44 00 00       	nopl   0x0(%rax,%rax,1)

0000000000400f00 <_dl_relocate_static_pie>:
  400f00:	f3 c3                	repz retq 
  400f02:	66 2e 0f 1f 84 00 00 	nopw   %cs:0x0(%rax,%rax,1)
  400f09:	00 00 00 
  400f0c:	0f 1f 40 00          	nopl   0x0(%rax)

0000000000400f10 <deregister_tm_clones>:
  400f10:	55                   	push   %rbp
  400f11:	b8 b0 54 60 00       	mov    $0x6054b0,%eax
  400f16:	48 3d b0 54 60 00    	cmp    $0x6054b0,%rax
  400f1c:	48 89 e5             	mov    %rsp,%rbp
  400f1f:	74 17                	je     400f38 <deregister_tm_clones+0x28>
  400f21:	b8 00 00 00 00       	mov    $0x0,%eax
  400f26:	48 85 c0             	test   %rax,%rax
  400f29:	74 0d                	je     400f38 <deregister_tm_clones+0x28>
  400f2b:	5d                   	pop    %rbp
  400f2c:	bf b0 54 60 00       	mov    $0x6054b0,%edi
  400f31:	ff e0                	jmpq   *%rax
  400f33:	0f 1f 44 00 00       	nopl   0x0(%rax,%rax,1)
  400f38:	5d                   	pop    %rbp
  400f39:	c3                   	retq   
  400f3a:	66 0f 1f 44 00 00    	nopw   0x0(%rax,%rax,1)

0000000000400f40 <register_tm_clones>:
  400f40:	be b0 54 60 00       	mov    $0x6054b0,%esi
  400f45:	55                   	push   %rbp
  400f46:	48 81 ee b0 54 60 00 	sub    $0x6054b0,%rsi
  400f4d:	48 89 e5             	mov    %rsp,%rbp
  400f50:	48 c1 fe 03          	sar    $0x3,%rsi
  400f54:	48 89 f0             	mov    %rsi,%rax
  400f57:	48 c1 e8 3f          	shr    $0x3f,%rax
  400f5b:	48 01 c6             	add    %rax,%rsi
  400f5e:	48 d1 fe             	sar    %rsi
  400f61:	74 15                	je     400f78 <register_tm_clones+0x38>
  400f63:	b8 00 00 00 00       	mov    $0x0,%eax
  400f68:	48 85 c0             	test   %rax,%rax
  400f6b:	74 0b                	je     400f78 <register_tm_clones+0x38>
  400f6d:	5d                   	pop    %rbp
  400f6e:	bf b0 54 60 00       	mov    $0x6054b0,%edi
  400f73:	ff e0                	jmpq   *%rax
  400f75:	0f 1f 00             	nopl   (%rax)
  400f78:	5d                   	pop    %rbp
  400f79:	c3                   	retq   
  400f7a:	66 0f 1f 44 00 00    	nopw   0x0(%rax,%rax,1)

0000000000400f80 <__do_global_dtors_aux>:
  400f80:	80 3d 61 45 20 00 00 	cmpb   $0x0,0x204561(%rip)        # 6054e8 <completed.7698>
  400f87:	75 17                	jne    400fa0 <__do_global_dtors_aux+0x20>
  400f89:	55                   	push   %rbp
  400f8a:	48 89 e5             	mov    %rsp,%rbp
  400f8d:	e8 7e ff ff ff       	callq  400f10 <deregister_tm_clones>
  400f92:	c6 05 4f 45 20 00 01 	movb   $0x1,0x20454f(%rip)        # 6054e8 <completed.7698>
  400f99:	5d                   	pop    %rbp
  400f9a:	c3                   	retq   
  400f9b:	0f 1f 44 00 00       	nopl   0x0(%rax,%rax,1)
  400fa0:	f3 c3                	repz retq 
  400fa2:	0f 1f 40 00          	nopl   0x0(%rax)
  400fa6:	66 2e 0f 1f 84 00 00 	nopw   %cs:0x0(%rax,%rax,1)
  400fad:	00 00 00 

0000000000400fb0 <frame_dummy>:
  400fb0:	55                   	push   %rbp
  400fb1:	48 89 e5             	mov    %rsp,%rbp
  400fb4:	5d                   	pop    %rbp
  400fb5:	eb 89                	jmp    400f40 <register_tm_clones>

0000000000400fb7 <usage>:
  400fb7:	48 83 ec 08          	sub    $0x8,%rsp
  400fbb:	48 89 fa             	mov    %rdi,%rdx
  400fbe:	83 3d 63 45 20 00 00 	cmpl   $0x0,0x204563(%rip)        # 605528 <is_checker>
  400fc5:	74 50                	je     401017 <usage+0x60>
  400fc7:	48 8d 35 da 1f 00 00 	lea    0x1fda(%rip),%rsi        # 402fa8 <_IO_stdin_used+0x8>
  400fce:	bf 01 00 00 00       	mov    $0x1,%edi
  400fd3:	b8 00 00 00 00       	mov    $0x0,%eax
  400fd8:	e8 53 fe ff ff       	callq  400e30 <__printf_chk@plt>
  400fdd:	48 8d 3d fc 1f 00 00 	lea    0x1ffc(%rip),%rdi        # 402fe0 <_IO_stdin_used+0x40>
  400fe4:	e8 17 fd ff ff       	callq  400d00 <puts@plt>
  400fe9:	48 8d 3d 68 21 00 00 	lea    0x2168(%rip),%rdi        # 403158 <_IO_stdin_used+0x1b8>
  400ff0:	e8 0b fd ff ff       	callq  400d00 <puts@plt>
  400ff5:	48 8d 3d 0c 20 00 00 	lea    0x200c(%rip),%rdi        # 403008 <_IO_stdin_used+0x68>
  400ffc:	e8 ff fc ff ff       	callq  400d00 <puts@plt>
  401001:	48 8d 3d 6a 21 00 00 	lea    0x216a(%rip),%rdi        # 403172 <_IO_stdin_used+0x1d2>
  401008:	e8 f3 fc ff ff       	callq  400d00 <puts@plt>
  40100d:	bf 00 00 00 00       	mov    $0x0,%edi
  401012:	e8 69 fe ff ff       	callq  400e80 <exit@plt>
  401017:	48 8d 35 70 21 00 00 	lea    0x2170(%rip),%rsi        # 40318e <_IO_stdin_used+0x1ee>
  40101e:	bf 01 00 00 00       	mov    $0x1,%edi
  401023:	b8 00 00 00 00       	mov    $0x0,%eax
  401028:	e8 03 fe ff ff       	callq  400e30 <__printf_chk@plt>
  40102d:	48 8d 3d fc 1f 00 00 	lea    0x1ffc(%rip),%rdi        # 403030 <_IO_stdin_used+0x90>
  401034:	e8 c7 fc ff ff       	callq  400d00 <puts@plt>
  401039:	48 8d 3d 18 20 00 00 	lea    0x2018(%rip),%rdi        # 403058 <_IO_stdin_used+0xb8>
  401040:	e8 bb fc ff ff       	callq  400d00 <puts@plt>
  401045:	48 8d 3d 60 21 00 00 	lea    0x2160(%rip),%rdi        # 4031ac <_IO_stdin_used+0x20c>
  40104c:	e8 af fc ff ff       	callq  400d00 <puts@plt>
  401051:	eb ba                	jmp    40100d <usage+0x56>

0000000000401053 <initialize_target>:
  401053:	55                   	push   %rbp
  401054:	53                   	push   %rbx
  401055:	48 81 ec 18 21 00 00 	sub    $0x2118,%rsp
  40105c:	89 f5                	mov    %esi,%ebp
  40105e:	64 48 8b 04 25 28 00 	mov    %fs:0x28,%rax
  401065:	00 00 
  401067:	48 89 84 24 08 21 00 	mov    %rax,0x2108(%rsp)
  40106e:	00 
  40106f:	31 c0                	xor    %eax,%eax
  401071:	89 3d a1 44 20 00    	mov    %edi,0x2044a1(%rip)        # 605518 <check_level>
  401077:	8b 3d d3 40 20 00    	mov    0x2040d3(%rip),%edi        # 605150 <target_id>
  40107d:	e8 75 1e 00 00       	callq  402ef7 <gencookie>
  401082:	89 05 9c 44 20 00    	mov    %eax,0x20449c(%rip)        # 605524 <cookie>
  401088:	89 c7                	mov    %eax,%edi
  40108a:	e8 68 1e 00 00       	callq  402ef7 <gencookie>
  40108f:	89 05 8b 44 20 00    	mov    %eax,0x20448b(%rip)        # 605520 <authkey>
  401095:	8b 05 b5 40 20 00    	mov    0x2040b5(%rip),%eax        # 605150 <target_id>
  40109b:	8d 78 01             	lea    0x1(%rax),%edi
  40109e:	e8 2d fc ff ff       	callq  400cd0 <srandom@plt>
  4010a3:	e8 48 fd ff ff       	callq  400df0 <random@plt>
  4010a8:	89 c7                	mov    %eax,%edi
  4010aa:	e8 1a 03 00 00       	callq  4013c9 <scramble>
  4010af:	89 c3                	mov    %eax,%ebx
  4010b1:	85 ed                	test   %ebp,%ebp
  4010b3:	75 54                	jne    401109 <initialize_target+0xb6>
  4010b5:	b8 00 00 00 00       	mov    $0x0,%eax
  4010ba:	01 d8                	add    %ebx,%eax
  4010bc:	0f b7 c0             	movzwl %ax,%eax
  4010bf:	8d 04 c5 00 01 00 00 	lea    0x100(,%rax,8),%eax
  4010c6:	89 c0                	mov    %eax,%eax
  4010c8:	48 89 05 d1 43 20 00 	mov    %rax,0x2043d1(%rip)        # 6054a0 <buf_offset>
  4010cf:	c6 05 72 50 20 00 63 	movb   $0x63,0x205072(%rip)        # 606148 <target_prefix>
  4010d6:	83 3d cb 43 20 00 00 	cmpl   $0x0,0x2043cb(%rip)        # 6054a8 <notify>
  4010dd:	74 09                	je     4010e8 <initialize_target+0x95>
  4010df:	83 3d 42 44 20 00 00 	cmpl   $0x0,0x204442(%rip)        # 605528 <is_checker>
  4010e6:	74 39                	je     401121 <initialize_target+0xce>
  4010e8:	48 8b 84 24 08 21 00 	mov    0x2108(%rsp),%rax
  4010ef:	00 
  4010f0:	64 48 33 04 25 28 00 	xor    %fs:0x28,%rax
  4010f7:	00 00 
  4010f9:	0f 85 da 00 00 00    	jne    4011d9 <initialize_target+0x186>
  4010ff:	48 81 c4 18 21 00 00 	add    $0x2118,%rsp
  401106:	5b                   	pop    %rbx
  401107:	5d                   	pop    %rbp
  401108:	c3                   	retq   
  401109:	bf 00 00 00 00       	mov    $0x0,%edi
  40110e:	e8 cd fc ff ff       	callq  400de0 <time@plt>
  401113:	89 c7                	mov    %eax,%edi
  401115:	e8 b6 fb ff ff       	callq  400cd0 <srandom@plt>
  40111a:	e8 d1 fc ff ff       	callq  400df0 <random@plt>
  40111f:	eb 99                	jmp    4010ba <initialize_target+0x67>
  401121:	48 89 e7             	mov    %rsp,%rdi
  401124:	be 00 01 00 00       	mov    $0x100,%esi
  401129:	e8 42 fd ff ff       	callq  400e70 <gethostname@plt>
  40112e:	89 c5                	mov    %eax,%ebp
  401130:	85 c0                	test   %eax,%eax
  401132:	75 26                	jne    40115a <initialize_target+0x107>
  401134:	89 c3                	mov    %eax,%ebx
  401136:	48 63 c3             	movslq %ebx,%rax
  401139:	48 8d 15 40 40 20 00 	lea    0x204040(%rip),%rdx        # 605180 <host_table>
  401140:	48 8b 3c c2          	mov    (%rdx,%rax,8),%rdi
  401144:	48 85 ff             	test   %rdi,%rdi
  401147:	74 2c                	je     401175 <initialize_target+0x122>
  401149:	48 89 e6             	mov    %rsp,%rsi
  40114c:	e8 5f fb ff ff       	callq  400cb0 <strcasecmp@plt>
  401151:	85 c0                	test   %eax,%eax
  401153:	74 1b                	je     401170 <initialize_target+0x11d>
  401155:	83 c3 01             	add    $0x1,%ebx
  401158:	eb dc                	jmp    401136 <initialize_target+0xe3>
  40115a:	48 8d 3d 27 1f 00 00 	lea    0x1f27(%rip),%rdi        # 403088 <_IO_stdin_used+0xe8>
  401161:	e8 9a fb ff ff       	callq  400d00 <puts@plt>
  401166:	bf 08 00 00 00       	mov    $0x8,%edi
  40116b:	e8 10 fd ff ff       	callq  400e80 <exit@plt>
  401170:	bd 01 00 00 00       	mov    $0x1,%ebp
  401175:	85 ed                	test   %ebp,%ebp
  401177:	74 3d                	je     4011b6 <initialize_target+0x163>
  401179:	48 8d bc 24 00 01 00 	lea    0x100(%rsp),%rdi
  401180:	00 
  401181:	e8 9c 1a 00 00       	callq  402c22 <init_driver>
  401186:	85 c0                	test   %eax,%eax
  401188:	0f 89 5a ff ff ff    	jns    4010e8 <initialize_target+0x95>
  40118e:	48 8d 94 24 00 01 00 	lea    0x100(%rsp),%rdx
  401195:	00 
  401196:	48 8d 35 63 1f 00 00 	lea    0x1f63(%rip),%rsi        # 403100 <_IO_stdin_used+0x160>
  40119d:	bf 01 00 00 00       	mov    $0x1,%edi
  4011a2:	b8 00 00 00 00       	mov    $0x0,%eax
  4011a7:	e8 84 fc ff ff       	callq  400e30 <__printf_chk@plt>
  4011ac:	bf 08 00 00 00       	mov    $0x8,%edi
  4011b1:	e8 ca fc ff ff       	callq  400e80 <exit@plt>
  4011b6:	48 89 e2             	mov    %rsp,%rdx
  4011b9:	48 8d 35 00 1f 00 00 	lea    0x1f00(%rip),%rsi        # 4030c0 <_IO_stdin_used+0x120>
  4011c0:	bf 01 00 00 00       	mov    $0x1,%edi
  4011c5:	b8 00 00 00 00       	mov    $0x0,%eax
  4011ca:	e8 61 fc ff ff       	callq  400e30 <__printf_chk@plt>
  4011cf:	bf 08 00 00 00       	mov    $0x8,%edi
  4011d4:	e8 a7 fc ff ff       	callq  400e80 <exit@plt>
  4011d9:	e8 42 fb ff ff       	callq  400d20 <__stack_chk_fail@plt>

00000000004011de <main>:
  4011de:	41 56                	push   %r14
  4011e0:	41 55                	push   %r13
  4011e2:	41 54                	push   %r12
  4011e4:	55                   	push   %rbp
  4011e5:	53                   	push   %rbx
  4011e6:	41 89 fc             	mov    %edi,%r12d
  4011e9:	48 89 f3             	mov    %rsi,%rbx
  4011ec:	48 c7 c6 bf 1f 40 00 	mov    $0x401fbf,%rsi
  4011f3:	bf 0b 00 00 00       	mov    $0xb,%edi
  4011f8:	e8 a3 fb ff ff       	callq  400da0 <signal@plt>
  4011fd:	48 c7 c6 6b 1f 40 00 	mov    $0x401f6b,%rsi
  401204:	bf 07 00 00 00       	mov    $0x7,%edi
  401209:	e8 92 fb ff ff       	callq  400da0 <signal@plt>
  40120e:	48 c7 c6 13 20 40 00 	mov    $0x402013,%rsi
  401215:	bf 04 00 00 00       	mov    $0x4,%edi
  40121a:	e8 81 fb ff ff       	callq  400da0 <signal@plt>
  40121f:	83 3d 02 43 20 00 00 	cmpl   $0x0,0x204302(%rip)        # 605528 <is_checker>
  401226:	75 26                	jne    40124e <main+0x70>
  401228:	48 8d 2d 96 1f 00 00 	lea    0x1f96(%rip),%rbp        # 4031c5 <_IO_stdin_used+0x225>
  40122f:	48 8b 05 8a 42 20 00 	mov    0x20428a(%rip),%rax        # 6054c0 <stdin@@GLIBC_2.2.5>
  401236:	48 89 05 d3 42 20 00 	mov    %rax,0x2042d3(%rip)        # 605510 <infile>
  40123d:	41 bd 00 00 00 00    	mov    $0x0,%r13d
  401243:	41 be 00 00 00 00    	mov    $0x0,%r14d
  401249:	e9 8d 00 00 00       	jmpq   4012db <main+0xfd>
  40124e:	48 c7 c6 67 20 40 00 	mov    $0x402067,%rsi
  401255:	bf 0e 00 00 00       	mov    $0xe,%edi
  40125a:	e8 41 fb ff ff       	callq  400da0 <signal@plt>
  40125f:	bf 05 00 00 00       	mov    $0x5,%edi
  401264:	e8 e7 fa ff ff       	callq  400d50 <alarm@plt>
  401269:	48 8d 2d 5a 1f 00 00 	lea    0x1f5a(%rip),%rbp        # 4031ca <_IO_stdin_used+0x22a>
  401270:	eb bd                	jmp    40122f <main+0x51>
  401272:	48 8b 3b             	mov    (%rbx),%rdi
  401275:	e8 3d fd ff ff       	callq  400fb7 <usage>
  40127a:	48 8d 35 59 21 00 00 	lea    0x2159(%rip),%rsi        # 4033da <_IO_stdin_used+0x43a>
  401281:	48 8b 3d 40 42 20 00 	mov    0x204240(%rip),%rdi        # 6054c8 <optarg@@GLIBC_2.2.5>
  401288:	e8 b3 fb ff ff       	callq  400e40 <fopen@plt>
  40128d:	48 89 05 7c 42 20 00 	mov    %rax,0x20427c(%rip)        # 605510 <infile>
  401294:	48 85 c0             	test   %rax,%rax
  401297:	75 42                	jne    4012db <main+0xfd>
  401299:	48 8b 0d 28 42 20 00 	mov    0x204228(%rip),%rcx        # 6054c8 <optarg@@GLIBC_2.2.5>
  4012a0:	48 8d 15 2b 1f 00 00 	lea    0x1f2b(%rip),%rdx        # 4031d2 <_IO_stdin_used+0x232>
  4012a7:	be 01 00 00 00       	mov    $0x1,%esi
  4012ac:	48 8b 3d 2d 42 20 00 	mov    0x20422d(%rip),%rdi        # 6054e0 <stderr@@GLIBC_2.2.5>
  4012b3:	e8 e8 fb ff ff       	callq  400ea0 <__fprintf_chk@plt>
  4012b8:	b8 01 00 00 00       	mov    $0x1,%eax
  4012bd:	e9 d9 00 00 00       	jmpq   40139b <main+0x1bd>
  4012c2:	ba 10 00 00 00       	mov    $0x10,%edx
  4012c7:	be 00 00 00 00       	mov    $0x0,%esi
  4012cc:	48 8b 3d f5 41 20 00 	mov    0x2041f5(%rip),%rdi        # 6054c8 <optarg@@GLIBC_2.2.5>
  4012d3:	e8 88 fb ff ff       	callq  400e60 <strtoul@plt>
  4012d8:	41 89 c6             	mov    %eax,%r14d
  4012db:	48 89 ea             	mov    %rbp,%rdx
  4012de:	48 89 de             	mov    %rbx,%rsi
  4012e1:	44 89 e7             	mov    %r12d,%edi
  4012e4:	e8 67 fb ff ff       	callq  400e50 <getopt@plt>
  4012e9:	3c ff                	cmp    $0xff,%al
  4012eb:	74 62                	je     40134f <main+0x171>
  4012ed:	0f be d0             	movsbl %al,%edx
  4012f0:	83 e8 61             	sub    $0x61,%eax
  4012f3:	3c 10                	cmp    $0x10,%al
  4012f5:	77 3a                	ja     401331 <main+0x153>
  4012f7:	0f b6 c0             	movzbl %al,%eax
  4012fa:	48 8d 0d 0f 1f 00 00 	lea    0x1f0f(%rip),%rcx        # 403210 <_IO_stdin_used+0x270>
  401301:	48 63 04 81          	movslq (%rcx,%rax,4),%rax
  401305:	48 01 c8             	add    %rcx,%rax
  401308:	ff e0                	jmpq   *%rax
  40130a:	ba 0a 00 00 00       	mov    $0xa,%edx
  40130f:	be 00 00 00 00       	mov    $0x0,%esi
  401314:	48 8b 3d ad 41 20 00 	mov    0x2041ad(%rip),%rdi        # 6054c8 <optarg@@GLIBC_2.2.5>
  40131b:	e8 a0 fa ff ff       	callq  400dc0 <strtol@plt>
  401320:	41 89 c5             	mov    %eax,%r13d
  401323:	eb b6                	jmp    4012db <main+0xfd>
  401325:	c7 05 79 41 20 00 00 	movl   $0x0,0x204179(%rip)        # 6054a8 <notify>
  40132c:	00 00 00 
  40132f:	eb aa                	jmp    4012db <main+0xfd>
  401331:	48 8d 35 b7 1e 00 00 	lea    0x1eb7(%rip),%rsi        # 4031ef <_IO_stdin_used+0x24f>
  401338:	bf 01 00 00 00       	mov    $0x1,%edi
  40133d:	b8 00 00 00 00       	mov    $0x0,%eax
  401342:	e8 e9 fa ff ff       	callq  400e30 <__printf_chk@plt>
  401347:	48 8b 3b             	mov    (%rbx),%rdi
  40134a:	e8 68 fc ff ff       	callq  400fb7 <usage>
  40134f:	be 00 00 00 00       	mov    $0x0,%esi
  401354:	44 89 ef             	mov    %r13d,%edi
  401357:	e8 f7 fc ff ff       	callq  401053 <initialize_target>
  40135c:	83 3d c5 41 20 00 00 	cmpl   $0x0,0x2041c5(%rip)        # 605528 <is_checker>
  401363:	74 09                	je     40136e <main+0x190>
  401365:	44 39 35 b4 41 20 00 	cmp    %r14d,0x2041b4(%rip)        # 605520 <authkey>
  40136c:	75 36                	jne    4013a4 <main+0x1c6>
  40136e:	8b 15 b0 41 20 00    	mov    0x2041b0(%rip),%edx        # 605524 <cookie>
  401374:	48 8d 35 87 1e 00 00 	lea    0x1e87(%rip),%rsi        # 403202 <_IO_stdin_used+0x262>
  40137b:	bf 01 00 00 00       	mov    $0x1,%edi
  401380:	b8 00 00 00 00       	mov    $0x0,%eax
  401385:	e8 a6 fa ff ff       	callq  400e30 <__printf_chk@plt>
  40138a:	48 8b 3d 0f 41 20 00 	mov    0x20410f(%rip),%rdi        # 6054a0 <buf_offset>
  401391:	e8 dd 0d 00 00       	callq  402173 <stable_launch>
  401396:	b8 00 00 00 00       	mov    $0x0,%eax
  40139b:	5b                   	pop    %rbx
  40139c:	5d                   	pop    %rbp
  40139d:	41 5c                	pop    %r12
  40139f:	41 5d                	pop    %r13
  4013a1:	41 5e                	pop    %r14
  4013a3:	c3                   	retq   
  4013a4:	44 89 f2             	mov    %r14d,%edx
  4013a7:	48 8d 35 7a 1d 00 00 	lea    0x1d7a(%rip),%rsi        # 403128 <_IO_stdin_used+0x188>
  4013ae:	bf 01 00 00 00       	mov    $0x1,%edi
  4013b3:	b8 00 00 00 00       	mov    $0x0,%eax
  4013b8:	e8 73 fa ff ff       	callq  400e30 <__printf_chk@plt>
  4013bd:	b8 00 00 00 00       	mov    $0x0,%eax
  4013c2:	e8 04 08 00 00       	callq  401bcb <check_fail>
  4013c7:	eb a5                	jmp    40136e <main+0x190>

00000000004013c9 <scramble>:
  4013c9:	48 83 ec 38          	sub    $0x38,%rsp
  4013cd:	64 48 8b 04 25 28 00 	mov    %fs:0x28,%rax
  4013d4:	00 00 
  4013d6:	48 89 44 24 28       	mov    %rax,0x28(%rsp)
  4013db:	31 c0                	xor    %eax,%eax
  4013dd:	eb 10                	jmp    4013ef <scramble+0x26>
  4013df:	69 d0 0f 56 00 00    	imul   $0x560f,%eax,%edx
  4013e5:	01 fa                	add    %edi,%edx
  4013e7:	89 c1                	mov    %eax,%ecx
  4013e9:	89 14 8c             	mov    %edx,(%rsp,%rcx,4)
  4013ec:	83 c0 01             	add    $0x1,%eax
  4013ef:	83 f8 09             	cmp    $0x9,%eax
  4013f2:	76 eb                	jbe    4013df <scramble+0x16>
  4013f4:	8b 44 24 08          	mov    0x8(%rsp),%eax
  4013f8:	69 c0 3a cd 00 00    	imul   $0xcd3a,%eax,%eax
  4013fe:	89 44 24 08          	mov    %eax,0x8(%rsp)
  401402:	8b 44 24 04          	mov    0x4(%rsp),%eax
  401406:	69 c0 60 c5 00 00    	imul   $0xc560,%eax,%eax
  40140c:	89 44 24 04          	mov    %eax,0x4(%rsp)
  401410:	8b 44 24 18          	mov    0x18(%rsp),%eax
  401414:	69 c0 e3 65 00 00    	imul   $0x65e3,%eax,%eax
  40141a:	89 44 24 18          	mov    %eax,0x18(%rsp)
  40141e:	8b 44 24 14          	mov    0x14(%rsp),%eax
  401422:	69 c0 f7 59 00 00    	imul   $0x59f7,%eax,%eax
  401428:	89 44 24 14          	mov    %eax,0x14(%rsp)
  40142c:	8b 44 24 24          	mov    0x24(%rsp),%eax
  401430:	69 c0 c8 10 00 00    	imul   $0x10c8,%eax,%eax
  401436:	89 44 24 24          	mov    %eax,0x24(%rsp)
  40143a:	8b 44 24 04          	mov    0x4(%rsp),%eax
  40143e:	69 c0 99 7d 00 00    	imul   $0x7d99,%eax,%eax
  401444:	89 44 24 04          	mov    %eax,0x4(%rsp)
  401448:	8b 44 24 24          	mov    0x24(%rsp),%eax
  40144c:	69 c0 44 f7 00 00    	imul   $0xf744,%eax,%eax
  401452:	89 44 24 24          	mov    %eax,0x24(%rsp)
  401456:	8b 44 24 10          	mov    0x10(%rsp),%eax
  40145a:	69 c0 66 03 00 00    	imul   $0x366,%eax,%eax
  401460:	89 44 24 10          	mov    %eax,0x10(%rsp)
  401464:	8b 44 24 14          	mov    0x14(%rsp),%eax
  401468:	69 c0 5e 47 00 00    	imul   $0x475e,%eax,%eax
  40146e:	89 44 24 14          	mov    %eax,0x14(%rsp)
  401472:	8b 44 24 14          	mov    0x14(%rsp),%eax
  401476:	69 c0 bb 9a 00 00    	imul   $0x9abb,%eax,%eax
  40147c:	89 44 24 14          	mov    %eax,0x14(%rsp)
  401480:	8b 44 24 10          	mov    0x10(%rsp),%eax
  401484:	69 c0 27 aa 00 00    	imul   $0xaa27,%eax,%eax
  40148a:	89 44 24 10          	mov    %eax,0x10(%rsp)
  40148e:	8b 44 24 08          	mov    0x8(%rsp),%eax
  401492:	69 c0 51 08 00 00    	imul   $0x851,%eax,%eax
  401498:	89 44 24 08          	mov    %eax,0x8(%rsp)
  40149c:	8b 44 24 10          	mov    0x10(%rsp),%eax
  4014a0:	69 c0 ca 03 00 00    	imul   $0x3ca,%eax,%eax
  4014a6:	89 44 24 10          	mov    %eax,0x10(%rsp)
  4014aa:	8b 44 24 24          	mov    0x24(%rsp),%eax
  4014ae:	69 c0 53 1b 00 00    	imul   $0x1b53,%eax,%eax
  4014b4:	89 44 24 24          	mov    %eax,0x24(%rsp)
  4014b8:	8b 44 24 14          	mov    0x14(%rsp),%eax
  4014bc:	69 c0 7d d5 00 00    	imul   $0xd57d,%eax,%eax
  4014c2:	89 44 24 14          	mov    %eax,0x14(%rsp)
  4014c6:	8b 44 24 18          	mov    0x18(%rsp),%eax
  4014ca:	69 c0 c2 f4 00 00    	imul   $0xf4c2,%eax,%eax
  4014d0:	89 44 24 18          	mov    %eax,0x18(%rsp)
  4014d4:	8b 04 24             	mov    (%rsp),%eax
  4014d7:	69 c0 e5 fb 00 00    	imul   $0xfbe5,%eax,%eax
  4014dd:	89 04 24             	mov    %eax,(%rsp)
  4014e0:	8b 44 24 08          	mov    0x8(%rsp),%eax
  4014e4:	69 c0 07 29 00 00    	imul   $0x2907,%eax,%eax
  4014ea:	89 44 24 08          	mov    %eax,0x8(%rsp)
  4014ee:	8b 04 24             	mov    (%rsp),%eax
  4014f1:	69 c0 6c d8 00 00    	imul   $0xd86c,%eax,%eax
  4014f7:	89 04 24             	mov    %eax,(%rsp)
  4014fa:	8b 44 24 04          	mov    0x4(%rsp),%eax
  4014fe:	69 c0 80 be 00 00    	imul   $0xbe80,%eax,%eax
  401504:	89 44 24 04          	mov    %eax,0x4(%rsp)
  401508:	8b 44 24 24          	mov    0x24(%rsp),%eax
  40150c:	69 c0 80 22 00 00    	imul   $0x2280,%eax,%eax
  401512:	89 44 24 24          	mov    %eax,0x24(%rsp)
  401516:	8b 44 24 10          	mov    0x10(%rsp),%eax
  40151a:	69 c0 56 28 00 00    	imul   $0x2856,%eax,%eax
  401520:	89 44 24 10          	mov    %eax,0x10(%rsp)
  401524:	8b 04 24             	mov    (%rsp),%eax
  401527:	69 c0 a0 bc 00 00    	imul   $0xbca0,%eax,%eax
  40152d:	89 04 24             	mov    %eax,(%rsp)
  401530:	8b 44 24 14          	mov    0x14(%rsp),%eax
  401534:	69 c0 4a 7c 00 00    	imul   $0x7c4a,%eax,%eax
  40153a:	89 44 24 14          	mov    %eax,0x14(%rsp)
  40153e:	8b 44 24 08          	mov    0x8(%rsp),%eax
  401542:	69 c0 2f 79 00 00    	imul   $0x792f,%eax,%eax
  401548:	89 44 24 08          	mov    %eax,0x8(%rsp)
  40154c:	8b 44 24 08          	mov    0x8(%rsp),%eax
  401550:	69 c0 ca b6 00 00    	imul   $0xb6ca,%eax,%eax
  401556:	89 44 24 08          	mov    %eax,0x8(%rsp)
  40155a:	8b 44 24 1c          	mov    0x1c(%rsp),%eax
  40155e:	69 c0 8c 0a 00 00    	imul   $0xa8c,%eax,%eax
  401564:	89 44 24 1c          	mov    %eax,0x1c(%rsp)
  401568:	8b 44 24 20          	mov    0x20(%rsp),%eax
  40156c:	69 c0 c2 1d 00 00    	imul   $0x1dc2,%eax,%eax
  401572:	89 44 24 20          	mov    %eax,0x20(%rsp)
  401576:	8b 44 24 14          	mov    0x14(%rsp),%eax
  40157a:	69 c0 c5 0d 00 00    	imul   $0xdc5,%eax,%eax
  401580:	89 44 24 14          	mov    %eax,0x14(%rsp)
  401584:	8b 44 24 1c          	mov    0x1c(%rsp),%eax
  401588:	69 c0 09 ad 00 00    	imul   $0xad09,%eax,%eax
  40158e:	89 44 24 1c          	mov    %eax,0x1c(%rsp)
  401592:	8b 44 24 24          	mov    0x24(%rsp),%eax
  401596:	69 c0 98 a5 00 00    	imul   $0xa598,%eax,%eax
  40159c:	89 44 24 24          	mov    %eax,0x24(%rsp)
  4015a0:	8b 44 24 24          	mov    0x24(%rsp),%eax
  4015a4:	69 c0 fb 85 00 00    	imul   $0x85fb,%eax,%eax
  4015aa:	89 44 24 24          	mov    %eax,0x24(%rsp)
  4015ae:	8b 44 24 08          	mov    0x8(%rsp),%eax
  4015b2:	69 c0 ed 5b 00 00    	imul   $0x5bed,%eax,%eax
  4015b8:	89 44 24 08          	mov    %eax,0x8(%rsp)
  4015bc:	8b 44 24 20          	mov    0x20(%rsp),%eax
  4015c0:	69 c0 46 03 00 00    	imul   $0x346,%eax,%eax
  4015c6:	89 44 24 20          	mov    %eax,0x20(%rsp)
  4015ca:	8b 44 24 08          	mov    0x8(%rsp),%eax
  4015ce:	69 c0 00 32 00 00    	imul   $0x3200,%eax,%eax
  4015d4:	89 44 24 08          	mov    %eax,0x8(%rsp)
  4015d8:	8b 44 24 18          	mov    0x18(%rsp),%eax
  4015dc:	69 c0 8f 1d 00 00    	imul   $0x1d8f,%eax,%eax
  4015e2:	89 44 24 18          	mov    %eax,0x18(%rsp)
  4015e6:	8b 44 24 04          	mov    0x4(%rsp),%eax
  4015ea:	69 c0 df fd 00 00    	imul   $0xfddf,%eax,%eax
  4015f0:	89 44 24 04          	mov    %eax,0x4(%rsp)
  4015f4:	8b 44 24 04          	mov    0x4(%rsp),%eax
  4015f8:	69 c0 44 6e 00 00    	imul   $0x6e44,%eax,%eax
  4015fe:	89 44 24 04          	mov    %eax,0x4(%rsp)
  401602:	8b 44 24 04          	mov    0x4(%rsp),%eax
  401606:	69 c0 a1 71 00 00    	imul   $0x71a1,%eax,%eax
  40160c:	89 44 24 04          	mov    %eax,0x4(%rsp)
  401610:	8b 44 24 20          	mov    0x20(%rsp),%eax
  401614:	69 c0 7e be 00 00    	imul   $0xbe7e,%eax,%eax
  40161a:	89 44 24 20          	mov    %eax,0x20(%rsp)
  40161e:	8b 44 24 08          	mov    0x8(%rsp),%eax
  401622:	69 c0 95 01 00 00    	imul   $0x195,%eax,%eax
  401628:	89 44 24 08          	mov    %eax,0x8(%rsp)
  40162c:	8b 44 24 0c          	mov    0xc(%rsp),%eax
  401630:	69 c0 26 0e 00 00    	imul   $0xe26,%eax,%eax
  401636:	89 44 24 0c          	mov    %eax,0xc(%rsp)
  40163a:	8b 04 24             	mov    (%rsp),%eax
  40163d:	69 c0 63 34 00 00    	imul   $0x3463,%eax,%eax
  401643:	89 04 24             	mov    %eax,(%rsp)
  401646:	8b 44 24 0c          	mov    0xc(%rsp),%eax
  40164a:	69 c0 77 1a 00 00    	imul   $0x1a77,%eax,%eax
  401650:	89 44 24 0c          	mov    %eax,0xc(%rsp)
  401654:	8b 04 24             	mov    (%rsp),%eax
  401657:	69 c0 fd 64 00 00    	imul   $0x64fd,%eax,%eax
  40165d:	89 04 24             	mov    %eax,(%rsp)
  401660:	8b 44 24 14          	mov    0x14(%rsp),%eax
  401664:	69 c0 6c 25 00 00    	imul   $0x256c,%eax,%eax
  40166a:	89 44 24 14          	mov    %eax,0x14(%rsp)
  40166e:	8b 44 24 1c          	mov    0x1c(%rsp),%eax
  401672:	69 c0 4b 69 00 00    	imul   $0x694b,%eax,%eax
  401678:	89 44 24 1c          	mov    %eax,0x1c(%rsp)
  40167c:	8b 04 24             	mov    (%rsp),%eax
  40167f:	69 c0 12 ac 00 00    	imul   $0xac12,%eax,%eax
  401685:	89 04 24             	mov    %eax,(%rsp)
  401688:	8b 04 24             	mov    (%rsp),%eax
  40168b:	69 c0 69 5a 00 00    	imul   $0x5a69,%eax,%eax
  401691:	89 04 24             	mov    %eax,(%rsp)
  401694:	8b 44 24 14          	mov    0x14(%rsp),%eax
  401698:	69 c0 92 f9 00 00    	imul   $0xf992,%eax,%eax
  40169e:	89 44 24 14          	mov    %eax,0x14(%rsp)
  4016a2:	8b 44 24 24          	mov    0x24(%rsp),%eax
  4016a6:	69 c0 1e 71 00 00    	imul   $0x711e,%eax,%eax
  4016ac:	89 44 24 24          	mov    %eax,0x24(%rsp)
  4016b0:	8b 44 24 14          	mov    0x14(%rsp),%eax
  4016b4:	69 c0 ea e0 00 00    	imul   $0xe0ea,%eax,%eax
  4016ba:	89 44 24 14          	mov    %eax,0x14(%rsp)
  4016be:	8b 44 24 10          	mov    0x10(%rsp),%eax
  4016c2:	69 c0 06 5d 00 00    	imul   $0x5d06,%eax,%eax
  4016c8:	89 44 24 10          	mov    %eax,0x10(%rsp)
  4016cc:	8b 44 24 14          	mov    0x14(%rsp),%eax
  4016d0:	69 c0 7d 29 00 00    	imul   $0x297d,%eax,%eax
  4016d6:	89 44 24 14          	mov    %eax,0x14(%rsp)
  4016da:	8b 44 24 1c          	mov    0x1c(%rsp),%eax
  4016de:	69 c0 bd 39 00 00    	imul   $0x39bd,%eax,%eax
  4016e4:	89 44 24 1c          	mov    %eax,0x1c(%rsp)
  4016e8:	8b 44 24 08          	mov    0x8(%rsp),%eax
  4016ec:	69 c0 77 b9 00 00    	imul   $0xb977,%eax,%eax
  4016f2:	89 44 24 08          	mov    %eax,0x8(%rsp)
  4016f6:	8b 44 24 24          	mov    0x24(%rsp),%eax
  4016fa:	69 c0 44 5d 00 00    	imul   $0x5d44,%eax,%eax
  401700:	89 44 24 24          	mov    %eax,0x24(%rsp)
  401704:	8b 44 24 24          	mov    0x24(%rsp),%eax
  401708:	69 c0 73 47 00 00    	imul   $0x4773,%eax,%eax
  40170e:	89 44 24 24          	mov    %eax,0x24(%rsp)
  401712:	8b 44 24 18          	mov    0x18(%rsp),%eax
  401716:	69 c0 85 f3 00 00    	imul   $0xf385,%eax,%eax
  40171c:	89 44 24 18          	mov    %eax,0x18(%rsp)
  401720:	8b 44 24 10          	mov    0x10(%rsp),%eax
  401724:	69 c0 d0 d3 00 00    	imul   $0xd3d0,%eax,%eax
  40172a:	89 44 24 10          	mov    %eax,0x10(%rsp)
  40172e:	8b 44 24 18          	mov    0x18(%rsp),%eax
  401732:	69 c0 6a 29 00 00    	imul   $0x296a,%eax,%eax
  401738:	89 44 24 18          	mov    %eax,0x18(%rsp)
  40173c:	8b 44 24 24          	mov    0x24(%rsp),%eax
  401740:	69 c0 17 63 00 00    	imul   $0x6317,%eax,%eax
  401746:	89 44 24 24          	mov    %eax,0x24(%rsp)
  40174a:	8b 04 24             	mov    (%rsp),%eax
  40174d:	69 c0 a3 a4 00 00    	imul   $0xa4a3,%eax,%eax
  401753:	89 04 24             	mov    %eax,(%rsp)
  401756:	8b 44 24 10          	mov    0x10(%rsp),%eax
  40175a:	69 c0 ee 57 00 00    	imul   $0x57ee,%eax,%eax
  401760:	89 44 24 10          	mov    %eax,0x10(%rsp)
  401764:	8b 44 24 08          	mov    0x8(%rsp),%eax
  401768:	69 c0 82 be 00 00    	imul   $0xbe82,%eax,%eax
  40176e:	89 44 24 08          	mov    %eax,0x8(%rsp)
  401772:	8b 44 24 0c          	mov    0xc(%rsp),%eax
  401776:	69 c0 76 8b 00 00    	imul   $0x8b76,%eax,%eax
  40177c:	89 44 24 0c          	mov    %eax,0xc(%rsp)
  401780:	8b 44 24 08          	mov    0x8(%rsp),%eax
  401784:	69 c0 a2 68 00 00    	imul   $0x68a2,%eax,%eax
  40178a:	89 44 24 08          	mov    %eax,0x8(%rsp)
  40178e:	8b 44 24 20          	mov    0x20(%rsp),%eax
  401792:	69 c0 9e 9e 00 00    	imul   $0x9e9e,%eax,%eax
  401798:	89 44 24 20          	mov    %eax,0x20(%rsp)
  40179c:	8b 44 24 1c          	mov    0x1c(%rsp),%eax
  4017a0:	69 c0 8e bb 00 00    	imul   $0xbb8e,%eax,%eax
  4017a6:	89 44 24 1c          	mov    %eax,0x1c(%rsp)
  4017aa:	8b 44 24 10          	mov    0x10(%rsp),%eax
  4017ae:	69 c0 50 94 00 00    	imul   $0x9450,%eax,%eax
  4017b4:	89 44 24 10          	mov    %eax,0x10(%rsp)
  4017b8:	8b 44 24 04          	mov    0x4(%rsp),%eax
  4017bc:	69 c0 17 b0 00 00    	imul   $0xb017,%eax,%eax
  4017c2:	89 44 24 04          	mov    %eax,0x4(%rsp)
  4017c6:	8b 44 24 1c          	mov    0x1c(%rsp),%eax
  4017ca:	69 c0 9e 30 00 00    	imul   $0x309e,%eax,%eax
  4017d0:	89 44 24 1c          	mov    %eax,0x1c(%rsp)
  4017d4:	8b 44 24 10          	mov    0x10(%rsp),%eax
  4017d8:	69 c0 65 15 00 00    	imul   $0x1565,%eax,%eax
  4017de:	89 44 24 10          	mov    %eax,0x10(%rsp)
  4017e2:	8b 44 24 08          	mov    0x8(%rsp),%eax
  4017e6:	69 c0 02 9f 00 00    	imul   $0x9f02,%eax,%eax
  4017ec:	89 44 24 08          	mov    %eax,0x8(%rsp)
  4017f0:	8b 44 24 0c          	mov    0xc(%rsp),%eax
  4017f4:	69 c0 fc d9 00 00    	imul   $0xd9fc,%eax,%eax
  4017fa:	89 44 24 0c          	mov    %eax,0xc(%rsp)
  4017fe:	8b 44 24 04          	mov    0x4(%rsp),%eax
  401802:	69 c0 6d 61 00 00    	imul   $0x616d,%eax,%eax
  401808:	89 44 24 04          	mov    %eax,0x4(%rsp)
  40180c:	8b 04 24             	mov    (%rsp),%eax
  40180f:	69 c0 0f 6c 00 00    	imul   $0x6c0f,%eax,%eax
  401815:	89 04 24             	mov    %eax,(%rsp)
  401818:	8b 44 24 14          	mov    0x14(%rsp),%eax
  40181c:	69 c0 1c 96 00 00    	imul   $0x961c,%eax,%eax
  401822:	89 44 24 14          	mov    %eax,0x14(%rsp)
  401826:	8b 44 24 10          	mov    0x10(%rsp),%eax
  40182a:	69 c0 ae d3 00 00    	imul   $0xd3ae,%eax,%eax
  401830:	89 44 24 10          	mov    %eax,0x10(%rsp)
  401834:	8b 44 24 0c          	mov    0xc(%rsp),%eax
  401838:	69 c0 bf 0f 00 00    	imul   $0xfbf,%eax,%eax
  40183e:	89 44 24 0c          	mov    %eax,0xc(%rsp)
  401842:	8b 44 24 04          	mov    0x4(%rsp),%eax
  401846:	69 c0 8b 3f 00 00    	imul   $0x3f8b,%eax,%eax
  40184c:	89 44 24 04          	mov    %eax,0x4(%rsp)
  401850:	8b 44 24 14          	mov    0x14(%rsp),%eax
  401854:	69 c0 d2 c1 00 00    	imul   $0xc1d2,%eax,%eax
  40185a:	89 44 24 14          	mov    %eax,0x14(%rsp)
  40185e:	8b 44 24 18          	mov    0x18(%rsp),%eax
  401862:	69 c0 95 07 00 00    	imul   $0x795,%eax,%eax
  401868:	89 44 24 18          	mov    %eax,0x18(%rsp)
  40186c:	8b 44 24 10          	mov    0x10(%rsp),%eax
  401870:	69 c0 d5 6d 00 00    	imul   $0x6dd5,%eax,%eax
  401876:	89 44 24 10          	mov    %eax,0x10(%rsp)
  40187a:	8b 44 24 04          	mov    0x4(%rsp),%eax
  40187e:	69 c0 8c 28 00 00    	imul   $0x288c,%eax,%eax
  401884:	89 44 24 04          	mov    %eax,0x4(%rsp)
  401888:	8b 44 24 0c          	mov    0xc(%rsp),%eax
  40188c:	69 c0 70 b8 00 00    	imul   $0xb870,%eax,%eax
  401892:	89 44 24 0c          	mov    %eax,0xc(%rsp)
  401896:	8b 44 24 20          	mov    0x20(%rsp),%eax
  40189a:	69 c0 ed 4f 00 00    	imul   $0x4fed,%eax,%eax
  4018a0:	89 44 24 20          	mov    %eax,0x20(%rsp)
  4018a4:	8b 44 24 20          	mov    0x20(%rsp),%eax
  4018a8:	69 c0 fe e5 00 00    	imul   $0xe5fe,%eax,%eax
  4018ae:	89 44 24 20          	mov    %eax,0x20(%rsp)
  4018b2:	8b 44 24 20          	mov    0x20(%rsp),%eax
  4018b6:	69 c0 20 61 00 00    	imul   $0x6120,%eax,%eax
  4018bc:	89 44 24 20          	mov    %eax,0x20(%rsp)
  4018c0:	8b 44 24 14          	mov    0x14(%rsp),%eax
  4018c4:	69 c0 3c 6e 00 00    	imul   $0x6e3c,%eax,%eax
  4018ca:	89 44 24 14          	mov    %eax,0x14(%rsp)
  4018ce:	8b 44 24 04          	mov    0x4(%rsp),%eax
  4018d2:	69 c0 d3 f7 00 00    	imul   $0xf7d3,%eax,%eax
  4018d8:	89 44 24 04          	mov    %eax,0x4(%rsp)
  4018dc:	8b 44 24 0c          	mov    0xc(%rsp),%eax
  4018e0:	69 c0 84 3e 00 00    	imul   $0x3e84,%eax,%eax
  4018e6:	89 44 24 0c          	mov    %eax,0xc(%rsp)
  4018ea:	8b 04 24             	mov    (%rsp),%eax
  4018ed:	69 c0 2e 94 00 00    	imul   $0x942e,%eax,%eax
  4018f3:	89 04 24             	mov    %eax,(%rsp)
  4018f6:	8b 44 24 10          	mov    0x10(%rsp),%eax
  4018fa:	69 c0 96 74 00 00    	imul   $0x7496,%eax,%eax
  401900:	89 44 24 10          	mov    %eax,0x10(%rsp)
  401904:	8b 44 24 04          	mov    0x4(%rsp),%eax
  401908:	69 c0 ab c2 00 00    	imul   $0xc2ab,%eax,%eax
  40190e:	89 44 24 04          	mov    %eax,0x4(%rsp)
  401912:	8b 44 24 20          	mov    0x20(%rsp),%eax
  401916:	69 c0 0d fa 00 00    	imul   $0xfa0d,%eax,%eax
  40191c:	89 44 24 20          	mov    %eax,0x20(%rsp)
  401920:	8b 44 24 1c          	mov    0x1c(%rsp),%eax
  401924:	69 c0 8b 1f 00 00    	imul   $0x1f8b,%eax,%eax
  40192a:	89 44 24 1c          	mov    %eax,0x1c(%rsp)
  40192e:	ba 00 00 00 00       	mov    $0x0,%edx
  401933:	b8 00 00 00 00       	mov    $0x0,%eax
  401938:	eb 0a                	jmp    401944 <scramble+0x57b>
  40193a:	89 d1                	mov    %edx,%ecx
  40193c:	8b 0c 8c             	mov    (%rsp,%rcx,4),%ecx
  40193f:	01 c8                	add    %ecx,%eax
  401941:	83 c2 01             	add    $0x1,%edx
  401944:	83 fa 09             	cmp    $0x9,%edx
  401947:	76 f1                	jbe    40193a <scramble+0x571>
  401949:	48 8b 74 24 28       	mov    0x28(%rsp),%rsi
  40194e:	64 48 33 34 25 28 00 	xor    %fs:0x28,%rsi
  401955:	00 00 
  401957:	75 05                	jne    40195e <scramble+0x595>
  401959:	48 83 c4 38          	add    $0x38,%rsp
  40195d:	c3                   	retq   
  40195e:	e8 bd f3 ff ff       	callq  400d20 <__stack_chk_fail@plt>

0000000000401963 <getbuf>:
  401963:	48 83 ec 38          	sub    $0x38,%rsp
  401967:	48 89 e7             	mov    %rsp,%rdi
  40196a:	e8 94 02 00 00       	callq  401c03 <Gets>
  40196f:	b8 01 00 00 00       	mov    $0x1,%eax
  401974:	48 83 c4 38          	add    $0x38,%rsp
  401978:	c3                   	retq   

0000000000401979 <touch1>:
  401979:	48 83 ec 08          	sub    $0x8,%rsp
  40197d:	c7 05 95 3b 20 00 01 	movl   $0x1,0x203b95(%rip)        # 60551c <vlevel>
  401984:	00 00 00 
  401987:	48 8d 3d e2 1a 00 00 	lea    0x1ae2(%rip),%rdi        # 403470 <_IO_stdin_used+0x4d0>
  40198e:	e8 6d f3 ff ff       	callq  400d00 <puts@plt>
  401993:	bf 01 00 00 00       	mov    $0x1,%edi
  401998:	e8 d6 04 00 00       	callq  401e73 <validate>
  40199d:	bf 00 00 00 00       	mov    $0x0,%edi
  4019a2:	e8 d9 f4 ff ff       	callq  400e80 <exit@plt>

00000000004019a7 <touch2>:
  4019a7:	48 83 ec 08          	sub    $0x8,%rsp
  4019ab:	89 fa                	mov    %edi,%edx
  4019ad:	c7 05 65 3b 20 00 02 	movl   $0x2,0x203b65(%rip)        # 60551c <vlevel>
  4019b4:	00 00 00 
  4019b7:	39 3d 67 3b 20 00    	cmp    %edi,0x203b67(%rip)        # 605524 <cookie>
  4019bd:	74 2a                	je     4019e9 <touch2+0x42>
  4019bf:	48 8d 35 fa 1a 00 00 	lea    0x1afa(%rip),%rsi        # 4034c0 <_IO_stdin_used+0x520>
  4019c6:	bf 01 00 00 00       	mov    $0x1,%edi
  4019cb:	b8 00 00 00 00       	mov    $0x0,%eax
  4019d0:	e8 5b f4 ff ff       	callq  400e30 <__printf_chk@plt>
  4019d5:	bf 02 00 00 00       	mov    $0x2,%edi
  4019da:	e8 64 05 00 00       	callq  401f43 <fail>
  4019df:	bf 00 00 00 00       	mov    $0x0,%edi
  4019e4:	e8 97 f4 ff ff       	callq  400e80 <exit@plt>
  4019e9:	48 8d 35 a8 1a 00 00 	lea    0x1aa8(%rip),%rsi        # 403498 <_IO_stdin_used+0x4f8>
  4019f0:	bf 01 00 00 00       	mov    $0x1,%edi
  4019f5:	b8 00 00 00 00       	mov    $0x0,%eax
  4019fa:	e8 31 f4 ff ff       	callq  400e30 <__printf_chk@plt>
  4019ff:	bf 02 00 00 00       	mov    $0x2,%edi
  401a04:	e8 6a 04 00 00       	callq  401e73 <validate>
  401a09:	eb d4                	jmp    4019df <touch2+0x38>

0000000000401a0b <hexmatch>:
  401a0b:	41 54                	push   %r12
  401a0d:	55                   	push   %rbp
  401a0e:	53                   	push   %rbx
  401a0f:	48 83 c4 80          	add    $0xffffffffffffff80,%rsp
  401a13:	89 fd                	mov    %edi,%ebp
  401a15:	48 89 f3             	mov    %rsi,%rbx
  401a18:	64 48 8b 04 25 28 00 	mov    %fs:0x28,%rax
  401a1f:	00 00 
  401a21:	48 89 44 24 78       	mov    %rax,0x78(%rsp)
  401a26:	31 c0                	xor    %eax,%eax
  401a28:	e8 c3 f3 ff ff       	callq  400df0 <random@plt>
  401a2d:	48 89 c1             	mov    %rax,%rcx
  401a30:	48 ba 0b d7 a3 70 3d 	movabs $0xa3d70a3d70a3d70b,%rdx
  401a37:	0a d7 a3 
  401a3a:	48 f7 ea             	imul   %rdx
  401a3d:	48 01 ca             	add    %rcx,%rdx
  401a40:	48 c1 fa 06          	sar    $0x6,%rdx
  401a44:	48 89 c8             	mov    %rcx,%rax
  401a47:	48 c1 f8 3f          	sar    $0x3f,%rax
  401a4b:	48 29 c2             	sub    %rax,%rdx
  401a4e:	48 8d 04 92          	lea    (%rdx,%rdx,4),%rax
  401a52:	48 8d 14 80          	lea    (%rax,%rax,4),%rdx
  401a56:	48 8d 04 95 00 00 00 	lea    0x0(,%rdx,4),%rax
  401a5d:	00 
  401a5e:	48 29 c1             	sub    %rax,%rcx
  401a61:	4c 8d 24 0c          	lea    (%rsp,%rcx,1),%r12
  401a65:	41 89 e8             	mov    %ebp,%r8d
  401a68:	48 8d 0d 1e 1a 00 00 	lea    0x1a1e(%rip),%rcx        # 40348d <_IO_stdin_used+0x4ed>
  401a6f:	48 c7 c2 ff ff ff ff 	mov    $0xffffffffffffffff,%rdx
  401a76:	be 01 00 00 00       	mov    $0x1,%esi
  401a7b:	4c 89 e7             	mov    %r12,%rdi
  401a7e:	b8 00 00 00 00       	mov    $0x0,%eax
  401a83:	e8 28 f4 ff ff       	callq  400eb0 <__sprintf_chk@plt>
  401a88:	ba 09 00 00 00       	mov    $0x9,%edx
  401a8d:	4c 89 e6             	mov    %r12,%rsi
  401a90:	48 89 df             	mov    %rbx,%rdi
  401a93:	e8 48 f2 ff ff       	callq  400ce0 <strncmp@plt>
  401a98:	85 c0                	test   %eax,%eax
  401a9a:	0f 94 c0             	sete   %al
  401a9d:	48 8b 5c 24 78       	mov    0x78(%rsp),%rbx
  401aa2:	64 48 33 1c 25 28 00 	xor    %fs:0x28,%rbx
  401aa9:	00 00 
  401aab:	75 0c                	jne    401ab9 <hexmatch+0xae>
  401aad:	0f b6 c0             	movzbl %al,%eax
  401ab0:	48 83 ec 80          	sub    $0xffffffffffffff80,%rsp
  401ab4:	5b                   	pop    %rbx
  401ab5:	5d                   	pop    %rbp
  401ab6:	41 5c                	pop    %r12
  401ab8:	c3                   	retq   
  401ab9:	e8 62 f2 ff ff       	callq  400d20 <__stack_chk_fail@plt>

0000000000401abe <touch3>:
  401abe:	53                   	push   %rbx
  401abf:	48 89 fb             	mov    %rdi,%rbx
  401ac2:	c7 05 50 3a 20 00 03 	movl   $0x3,0x203a50(%rip)        # 60551c <vlevel>
  401ac9:	00 00 00 
  401acc:	48 89 fe             	mov    %rdi,%rsi
  401acf:	8b 3d 4f 3a 20 00    	mov    0x203a4f(%rip),%edi        # 605524 <cookie>
  401ad5:	e8 31 ff ff ff       	callq  401a0b <hexmatch>
  401ada:	85 c0                	test   %eax,%eax
  401adc:	74 2d                	je     401b0b <touch3+0x4d>
  401ade:	48 89 da             	mov    %rbx,%rdx
  401ae1:	48 8d 35 00 1a 00 00 	lea    0x1a00(%rip),%rsi        # 4034e8 <_IO_stdin_used+0x548>
  401ae8:	bf 01 00 00 00       	mov    $0x1,%edi
  401aed:	b8 00 00 00 00       	mov    $0x0,%eax
  401af2:	e8 39 f3 ff ff       	callq  400e30 <__printf_chk@plt>
  401af7:	bf 03 00 00 00       	mov    $0x3,%edi
  401afc:	e8 72 03 00 00       	callq  401e73 <validate>
  401b01:	bf 00 00 00 00       	mov    $0x0,%edi
  401b06:	e8 75 f3 ff ff       	callq  400e80 <exit@plt>
  401b0b:	48 89 da             	mov    %rbx,%rdx
  401b0e:	48 8d 35 fb 19 00 00 	lea    0x19fb(%rip),%rsi        # 403510 <_IO_stdin_used+0x570>
  401b15:	bf 01 00 00 00       	mov    $0x1,%edi
  401b1a:	b8 00 00 00 00       	mov    $0x0,%eax
  401b1f:	e8 0c f3 ff ff       	callq  400e30 <__printf_chk@plt>
  401b24:	bf 03 00 00 00       	mov    $0x3,%edi
  401b29:	e8 15 04 00 00       	callq  401f43 <fail>
  401b2e:	eb d1                	jmp    401b01 <touch3+0x43>

0000000000401b30 <test>:
  401b30:	48 83 ec 08          	sub    $0x8,%rsp
  401b34:	b8 00 00 00 00       	mov    $0x0,%eax
  401b39:	e8 25 fe ff ff       	callq  401963 <getbuf>
  401b3e:	89 c2                	mov    %eax,%edx
  401b40:	48 8d 35 f1 19 00 00 	lea    0x19f1(%rip),%rsi        # 403538 <_IO_stdin_used+0x598>
  401b47:	bf 01 00 00 00       	mov    $0x1,%edi
  401b4c:	b8 00 00 00 00       	mov    $0x0,%eax
  401b51:	e8 da f2 ff ff       	callq  400e30 <__printf_chk@plt>
  401b56:	48 83 c4 08          	add    $0x8,%rsp
  401b5a:	c3                   	retq   

0000000000401b5b <save_char>:
  401b5b:	8b 05 e3 45 20 00    	mov    0x2045e3(%rip),%eax        # 606144 <gets_cnt>
  401b61:	3d ff 03 00 00       	cmp    $0x3ff,%eax
  401b66:	7f 4a                	jg     401bb2 <save_char+0x57>
  401b68:	89 f9                	mov    %edi,%ecx
  401b6a:	c0 e9 04             	shr    $0x4,%cl
  401b6d:	8d 14 40             	lea    (%rax,%rax,2),%edx
  401b70:	4c 8d 05 e9 1c 00 00 	lea    0x1ce9(%rip),%r8        # 403860 <trans_char>
  401b77:	83 e1 0f             	and    $0xf,%ecx
  401b7a:	45 0f b6 0c 08       	movzbl (%r8,%rcx,1),%r9d
  401b7f:	48 8d 0d ba 39 20 00 	lea    0x2039ba(%rip),%rcx        # 605540 <gets_buf>
  401b86:	48 63 f2             	movslq %edx,%rsi
  401b89:	44 88 0c 31          	mov    %r9b,(%rcx,%rsi,1)
  401b8d:	8d 72 01             	lea    0x1(%rdx),%esi
  401b90:	83 e7 0f             	and    $0xf,%edi
  401b93:	41 0f b6 3c 38       	movzbl (%r8,%rdi,1),%edi
  401b98:	48 63 f6             	movslq %esi,%rsi
  401b9b:	40 88 3c 31          	mov    %dil,(%rcx,%rsi,1)
  401b9f:	83 c2 02             	add    $0x2,%edx
  401ba2:	48 63 d2             	movslq %edx,%rdx
  401ba5:	c6 04 11 20          	movb   $0x20,(%rcx,%rdx,1)
  401ba9:	83 c0 01             	add    $0x1,%eax
  401bac:	89 05 92 45 20 00    	mov    %eax,0x204592(%rip)        # 606144 <gets_cnt>
  401bb2:	f3 c3                	repz retq 

0000000000401bb4 <save_term>:
  401bb4:	8b 05 8a 45 20 00    	mov    0x20458a(%rip),%eax        # 606144 <gets_cnt>
  401bba:	8d 04 40             	lea    (%rax,%rax,2),%eax
  401bbd:	48 98                	cltq   
  401bbf:	48 8d 15 7a 39 20 00 	lea    0x20397a(%rip),%rdx        # 605540 <gets_buf>
  401bc6:	c6 04 02 00          	movb   $0x0,(%rdx,%rax,1)
  401bca:	c3                   	retq   

0000000000401bcb <check_fail>:
  401bcb:	48 83 ec 08          	sub    $0x8,%rsp
  401bcf:	0f be 15 72 45 20 00 	movsbl 0x204572(%rip),%edx        # 606148 <target_prefix>
  401bd6:	4c 8d 05 63 39 20 00 	lea    0x203963(%rip),%r8        # 605540 <gets_buf>
  401bdd:	8b 0d 35 39 20 00    	mov    0x203935(%rip),%ecx        # 605518 <check_level>
  401be3:	48 8d 35 71 19 00 00 	lea    0x1971(%rip),%rsi        # 40355b <_IO_stdin_used+0x5bb>
  401bea:	bf 01 00 00 00       	mov    $0x1,%edi
  401bef:	b8 00 00 00 00       	mov    $0x0,%eax
  401bf4:	e8 37 f2 ff ff       	callq  400e30 <__printf_chk@plt>
  401bf9:	bf 01 00 00 00       	mov    $0x1,%edi
  401bfe:	e8 7d f2 ff ff       	callq  400e80 <exit@plt>

0000000000401c03 <Gets>:
  401c03:	41 54                	push   %r12
  401c05:	55                   	push   %rbp
  401c06:	53                   	push   %rbx
  401c07:	49 89 fc             	mov    %rdi,%r12
  401c0a:	c7 05 30 45 20 00 00 	movl   $0x0,0x204530(%rip)        # 606144 <gets_cnt>
  401c11:	00 00 00 
  401c14:	48 89 fb             	mov    %rdi,%rbx
  401c17:	eb 11                	jmp    401c2a <Gets+0x27>
  401c19:	48 8d 6b 01          	lea    0x1(%rbx),%rbp
  401c1d:	88 03                	mov    %al,(%rbx)
  401c1f:	0f b6 f8             	movzbl %al,%edi
  401c22:	e8 34 ff ff ff       	callq  401b5b <save_char>
  401c27:	48 89 eb             	mov    %rbp,%rbx
  401c2a:	48 8b 3d df 38 20 00 	mov    0x2038df(%rip),%rdi        # 605510 <infile>
  401c31:	e8 ca f1 ff ff       	callq  400e00 <_IO_getc@plt>
  401c36:	83 f8 ff             	cmp    $0xffffffff,%eax
  401c39:	74 05                	je     401c40 <Gets+0x3d>
  401c3b:	83 f8 0a             	cmp    $0xa,%eax
  401c3e:	75 d9                	jne    401c19 <Gets+0x16>
  401c40:	c6 03 00             	movb   $0x0,(%rbx)
  401c43:	b8 00 00 00 00       	mov    $0x0,%eax
  401c48:	e8 67 ff ff ff       	callq  401bb4 <save_term>
  401c4d:	4c 89 e0             	mov    %r12,%rax
  401c50:	5b                   	pop    %rbx
  401c51:	5d                   	pop    %rbp
  401c52:	41 5c                	pop    %r12
  401c54:	c3                   	retq   

0000000000401c55 <notify_server>:
  401c55:	55                   	push   %rbp
  401c56:	53                   	push   %rbx
  401c57:	48 81 ec 18 40 00 00 	sub    $0x4018,%rsp
  401c5e:	64 48 8b 04 25 28 00 	mov    %fs:0x28,%rax
  401c65:	00 00 
  401c67:	48 89 84 24 08 40 00 	mov    %rax,0x4008(%rsp)
  401c6e:	00 
  401c6f:	31 c0                	xor    %eax,%eax
  401c71:	83 3d b0 38 20 00 00 	cmpl   $0x0,0x2038b0(%rip)        # 605528 <is_checker>
  401c78:	0f 85 d2 00 00 00    	jne    401d50 <notify_server+0xfb>
  401c7e:	89 fb                	mov    %edi,%ebx
  401c80:	8b 05 be 44 20 00    	mov    0x2044be(%rip),%eax        # 606144 <gets_cnt>
  401c86:	83 c0 64             	add    $0x64,%eax
  401c89:	3d 00 20 00 00       	cmp    $0x2000,%eax
  401c8e:	0f 8f dd 00 00 00    	jg     401d71 <notify_server+0x11c>
  401c94:	0f be 05 ad 44 20 00 	movsbl 0x2044ad(%rip),%eax        # 606148 <target_prefix>
  401c9b:	83 3d 06 38 20 00 00 	cmpl   $0x0,0x203806(%rip)        # 6054a8 <notify>
  401ca2:	0f 84 e9 00 00 00    	je     401d91 <notify_server+0x13c>
  401ca8:	8b 15 72 38 20 00    	mov    0x203872(%rip),%edx        # 605520 <authkey>
  401cae:	85 db                	test   %ebx,%ebx
  401cb0:	0f 84 e5 00 00 00    	je     401d9b <notify_server+0x146>
  401cb6:	48 8d 2d b4 18 00 00 	lea    0x18b4(%rip),%rbp        # 403571 <_IO_stdin_used+0x5d1>
  401cbd:	48 89 e7             	mov    %rsp,%rdi
  401cc0:	48 8d 0d 79 38 20 00 	lea    0x203879(%rip),%rcx        # 605540 <gets_buf>
  401cc7:	51                   	push   %rcx
  401cc8:	56                   	push   %rsi
  401cc9:	50                   	push   %rax
  401cca:	52                   	push   %rdx
  401ccb:	49 89 e9             	mov    %rbp,%r9
  401cce:	44 8b 05 7b 34 20 00 	mov    0x20347b(%rip),%r8d        # 605150 <target_id>
  401cd5:	48 8d 0d 9f 18 00 00 	lea    0x189f(%rip),%rcx        # 40357b <_IO_stdin_used+0x5db>
  401cdc:	ba 00 20 00 00       	mov    $0x2000,%edx
  401ce1:	be 01 00 00 00       	mov    $0x1,%esi
  401ce6:	b8 00 00 00 00       	mov    $0x0,%eax
  401ceb:	e8 c0 f1 ff ff       	callq  400eb0 <__sprintf_chk@plt>
  401cf0:	48 83 c4 20          	add    $0x20,%rsp
  401cf4:	83 3d ad 37 20 00 00 	cmpl   $0x0,0x2037ad(%rip)        # 6054a8 <notify>
  401cfb:	0f 84 df 00 00 00    	je     401de0 <notify_server+0x18b>
  401d01:	85 db                	test   %ebx,%ebx
  401d03:	0f 84 c6 00 00 00    	je     401dcf <notify_server+0x17a>
  401d09:	48 89 e1             	mov    %rsp,%rcx
  401d0c:	4c 8d 8c 24 00 20 00 	lea    0x2000(%rsp),%r9
  401d13:	00 
  401d14:	41 b8 00 00 00 00    	mov    $0x0,%r8d
  401d1a:	48 8b 15 47 34 20 00 	mov    0x203447(%rip),%rdx        # 605168 <lab>
  401d21:	48 8b 35 48 34 20 00 	mov    0x203448(%rip),%rsi        # 605170 <course>
  401d28:	48 8b 3d 31 34 20 00 	mov    0x203431(%rip),%rdi        # 605160 <user_id>
  401d2f:	e8 1e 11 00 00       	callq  402e52 <driver_post>
  401d34:	85 c0                	test   %eax,%eax
  401d36:	78 6f                	js     401da7 <notify_server+0x152>
  401d38:	48 8d 3d 81 19 00 00 	lea    0x1981(%rip),%rdi        # 4036c0 <_IO_stdin_used+0x720>
  401d3f:	e8 bc ef ff ff       	callq  400d00 <puts@plt>
  401d44:	48 8d 3d 58 18 00 00 	lea    0x1858(%rip),%rdi        # 4035a3 <_IO_stdin_used+0x603>
  401d4b:	e8 b0 ef ff ff       	callq  400d00 <puts@plt>
  401d50:	48 8b 84 24 08 40 00 	mov    0x4008(%rsp),%rax
  401d57:	00 
  401d58:	64 48 33 04 25 28 00 	xor    %fs:0x28,%rax
  401d5f:	00 00 
  401d61:	0f 85 07 01 00 00    	jne    401e6e <notify_server+0x219>
  401d67:	48 81 c4 18 40 00 00 	add    $0x4018,%rsp
  401d6e:	5b                   	pop    %rbx
  401d6f:	5d                   	pop    %rbp
  401d70:	c3                   	retq   
  401d71:	48 8d 35 18 19 00 00 	lea    0x1918(%rip),%rsi        # 403690 <_IO_stdin_used+0x6f0>
  401d78:	bf 01 00 00 00       	mov    $0x1,%edi
  401d7d:	b8 00 00 00 00       	mov    $0x0,%eax
  401d82:	e8 a9 f0 ff ff       	callq  400e30 <__printf_chk@plt>
  401d87:	bf 01 00 00 00       	mov    $0x1,%edi
  401d8c:	e8 ef f0 ff ff       	callq  400e80 <exit@plt>
  401d91:	ba ff ff ff ff       	mov    $0xffffffff,%edx
  401d96:	e9 13 ff ff ff       	jmpq   401cae <notify_server+0x59>
  401d9b:	48 8d 2d d4 17 00 00 	lea    0x17d4(%rip),%rbp        # 403576 <_IO_stdin_used+0x5d6>
  401da2:	e9 16 ff ff ff       	jmpq   401cbd <notify_server+0x68>
  401da7:	48 8d 94 24 00 20 00 	lea    0x2000(%rsp),%rdx
  401dae:	00 
  401daf:	48 8d 35 e1 17 00 00 	lea    0x17e1(%rip),%rsi        # 403597 <_IO_stdin_used+0x5f7>
  401db6:	bf 01 00 00 00       	mov    $0x1,%edi
  401dbb:	b8 00 00 00 00       	mov    $0x0,%eax
  401dc0:	e8 6b f0 ff ff       	callq  400e30 <__printf_chk@plt>
  401dc5:	bf 01 00 00 00       	mov    $0x1,%edi
  401dca:	e8 b1 f0 ff ff       	callq  400e80 <exit@plt>
  401dcf:	48 8d 3d d7 17 00 00 	lea    0x17d7(%rip),%rdi        # 4035ad <_IO_stdin_used+0x60d>
  401dd6:	e8 25 ef ff ff       	callq  400d00 <puts@plt>
  401ddb:	e9 70 ff ff ff       	jmpq   401d50 <notify_server+0xfb>
  401de0:	48 89 ea             	mov    %rbp,%rdx
  401de3:	48 8d 35 0e 19 00 00 	lea    0x190e(%rip),%rsi        # 4036f8 <_IO_stdin_used+0x758>
  401dea:	bf 01 00 00 00       	mov    $0x1,%edi
  401def:	b8 00 00 00 00       	mov    $0x0,%eax
  401df4:	e8 37 f0 ff ff       	callq  400e30 <__printf_chk@plt>
  401df9:	48 8b 15 60 33 20 00 	mov    0x203360(%rip),%rdx        # 605160 <user_id>
  401e00:	48 8d 35 ad 17 00 00 	lea    0x17ad(%rip),%rsi        # 4035b4 <_IO_stdin_used+0x614>
  401e07:	bf 01 00 00 00       	mov    $0x1,%edi
  401e0c:	b8 00 00 00 00       	mov    $0x0,%eax
  401e11:	e8 1a f0 ff ff       	callq  400e30 <__printf_chk@plt>
  401e16:	48 8b 15 53 33 20 00 	mov    0x203353(%rip),%rdx        # 605170 <course>
  401e1d:	48 8d 35 9d 17 00 00 	lea    0x179d(%rip),%rsi        # 4035c1 <_IO_stdin_used+0x621>
  401e24:	bf 01 00 00 00       	mov    $0x1,%edi
  401e29:	b8 00 00 00 00       	mov    $0x0,%eax
  401e2e:	e8 fd ef ff ff       	callq  400e30 <__printf_chk@plt>
  401e33:	48 8b 15 2e 33 20 00 	mov    0x20332e(%rip),%rdx        # 605168 <lab>
  401e3a:	48 8d 35 8c 17 00 00 	lea    0x178c(%rip),%rsi        # 4035cd <_IO_stdin_used+0x62d>
  401e41:	bf 01 00 00 00       	mov    $0x1,%edi
  401e46:	b8 00 00 00 00       	mov    $0x0,%eax
  401e4b:	e8 e0 ef ff ff       	callq  400e30 <__printf_chk@plt>
  401e50:	48 89 e2             	mov    %rsp,%rdx
  401e53:	48 8d 35 7c 17 00 00 	lea    0x177c(%rip),%rsi        # 4035d6 <_IO_stdin_used+0x636>
  401e5a:	bf 01 00 00 00       	mov    $0x1,%edi
  401e5f:	b8 00 00 00 00       	mov    $0x0,%eax
  401e64:	e8 c7 ef ff ff       	callq  400e30 <__printf_chk@plt>
  401e69:	e9 e2 fe ff ff       	jmpq   401d50 <notify_server+0xfb>
  401e6e:	e8 ad ee ff ff       	callq  400d20 <__stack_chk_fail@plt>

0000000000401e73 <validate>:
  401e73:	53                   	push   %rbx
  401e74:	89 fb                	mov    %edi,%ebx
  401e76:	83 3d ab 36 20 00 00 	cmpl   $0x0,0x2036ab(%rip)        # 605528 <is_checker>
  401e7d:	74 72                	je     401ef1 <validate+0x7e>
  401e7f:	39 3d 97 36 20 00    	cmp    %edi,0x203697(%rip)        # 60551c <vlevel>
  401e85:	75 32                	jne    401eb9 <validate+0x46>
  401e87:	8b 15 8b 36 20 00    	mov    0x20368b(%rip),%edx        # 605518 <check_level>
  401e8d:	39 fa                	cmp    %edi,%edx
  401e8f:	75 3e                	jne    401ecf <validate+0x5c>
  401e91:	0f be 15 b0 42 20 00 	movsbl 0x2042b0(%rip),%edx        # 606148 <target_prefix>
  401e98:	4c 8d 05 a1 36 20 00 	lea    0x2036a1(%rip),%r8        # 605540 <gets_buf>
  401e9f:	89 f9                	mov    %edi,%ecx
  401ea1:	48 8d 35 58 17 00 00 	lea    0x1758(%rip),%rsi        # 403600 <_IO_stdin_used+0x660>
  401ea8:	bf 01 00 00 00       	mov    $0x1,%edi
  401ead:	b8 00 00 00 00       	mov    $0x0,%eax
  401eb2:	e8 79 ef ff ff       	callq  400e30 <__printf_chk@plt>
  401eb7:	5b                   	pop    %rbx
  401eb8:	c3                   	retq   
  401eb9:	48 8d 3d 22 17 00 00 	lea    0x1722(%rip),%rdi        # 4035e2 <_IO_stdin_used+0x642>
  401ec0:	e8 3b ee ff ff       	callq  400d00 <puts@plt>
  401ec5:	b8 00 00 00 00       	mov    $0x0,%eax
  401eca:	e8 fc fc ff ff       	callq  401bcb <check_fail>
  401ecf:	89 f9                	mov    %edi,%ecx
  401ed1:	48 8d 35 48 18 00 00 	lea    0x1848(%rip),%rsi        # 403720 <_IO_stdin_used+0x780>
  401ed8:	bf 01 00 00 00       	mov    $0x1,%edi
  401edd:	b8 00 00 00 00       	mov    $0x0,%eax
  401ee2:	e8 49 ef ff ff       	callq  400e30 <__printf_chk@plt>
  401ee7:	b8 00 00 00 00       	mov    $0x0,%eax
  401eec:	e8 da fc ff ff       	callq  401bcb <check_fail>
  401ef1:	39 3d 25 36 20 00    	cmp    %edi,0x203625(%rip)        # 60551c <vlevel>
  401ef7:	74 1a                	je     401f13 <validate+0xa0>
  401ef9:	48 8d 3d e2 16 00 00 	lea    0x16e2(%rip),%rdi        # 4035e2 <_IO_stdin_used+0x642>
  401f00:	e8 fb ed ff ff       	callq  400d00 <puts@plt>
  401f05:	89 de                	mov    %ebx,%esi
  401f07:	bf 00 00 00 00       	mov    $0x0,%edi
  401f0c:	e8 44 fd ff ff       	callq  401c55 <notify_server>
  401f11:	eb a4                	jmp    401eb7 <validate+0x44>
  401f13:	0f be 0d 2e 42 20 00 	movsbl 0x20422e(%rip),%ecx        # 606148 <target_prefix>
  401f1a:	89 fa                	mov    %edi,%edx
  401f1c:	48 8d 35 25 18 00 00 	lea    0x1825(%rip),%rsi        # 403748 <_IO_stdin_used+0x7a8>
  401f23:	bf 01 00 00 00       	mov    $0x1,%edi
  401f28:	b8 00 00 00 00       	mov    $0x0,%eax
  401f2d:	e8 fe ee ff ff       	callq  400e30 <__printf_chk@plt>
  401f32:	89 de                	mov    %ebx,%esi
  401f34:	bf 01 00 00 00       	mov    $0x1,%edi
  401f39:	e8 17 fd ff ff       	callq  401c55 <notify_server>
  401f3e:	e9 74 ff ff ff       	jmpq   401eb7 <validate+0x44>

0000000000401f43 <fail>:
  401f43:	48 83 ec 08          	sub    $0x8,%rsp
  401f47:	83 3d da 35 20 00 00 	cmpl   $0x0,0x2035da(%rip)        # 605528 <is_checker>
  401f4e:	75 11                	jne    401f61 <fail+0x1e>
  401f50:	89 fe                	mov    %edi,%esi
  401f52:	bf 00 00 00 00       	mov    $0x0,%edi
  401f57:	e8 f9 fc ff ff       	callq  401c55 <notify_server>
  401f5c:	48 83 c4 08          	add    $0x8,%rsp
  401f60:	c3                   	retq   
  401f61:	b8 00 00 00 00       	mov    $0x0,%eax
  401f66:	e8 60 fc ff ff       	callq  401bcb <check_fail>

0000000000401f6b <bushandler>:
  401f6b:	48 83 ec 08          	sub    $0x8,%rsp
  401f6f:	83 3d b2 35 20 00 00 	cmpl   $0x0,0x2035b2(%rip)        # 605528 <is_checker>
  401f76:	74 16                	je     401f8e <bushandler+0x23>
  401f78:	48 8d 3d 96 16 00 00 	lea    0x1696(%rip),%rdi        # 403615 <_IO_stdin_used+0x675>
  401f7f:	e8 7c ed ff ff       	callq  400d00 <puts@plt>
  401f84:	b8 00 00 00 00       	mov    $0x0,%eax
  401f89:	e8 3d fc ff ff       	callq  401bcb <check_fail>
  401f8e:	48 8d 3d eb 17 00 00 	lea    0x17eb(%rip),%rdi        # 403780 <_IO_stdin_used+0x7e0>
  401f95:	e8 66 ed ff ff       	callq  400d00 <puts@plt>
  401f9a:	48 8d 3d 7e 16 00 00 	lea    0x167e(%rip),%rdi        # 40361f <_IO_stdin_used+0x67f>
  401fa1:	e8 5a ed ff ff       	callq  400d00 <puts@plt>
  401fa6:	be 00 00 00 00       	mov    $0x0,%esi
  401fab:	bf 00 00 00 00       	mov    $0x0,%edi
  401fb0:	e8 a0 fc ff ff       	callq  401c55 <notify_server>
  401fb5:	bf 01 00 00 00       	mov    $0x1,%edi
  401fba:	e8 c1 ee ff ff       	callq  400e80 <exit@plt>

0000000000401fbf <seghandler>:
  401fbf:	48 83 ec 08          	sub    $0x8,%rsp
  401fc3:	83 3d 5e 35 20 00 00 	cmpl   $0x0,0x20355e(%rip)        # 605528 <is_checker>
  401fca:	74 16                	je     401fe2 <seghandler+0x23>
  401fcc:	48 8d 3d 62 16 00 00 	lea    0x1662(%rip),%rdi        # 403635 <_IO_stdin_used+0x695>
  401fd3:	e8 28 ed ff ff       	callq  400d00 <puts@plt>
  401fd8:	b8 00 00 00 00       	mov    $0x0,%eax
  401fdd:	e8 e9 fb ff ff       	callq  401bcb <check_fail>
  401fe2:	48 8d 3d b7 17 00 00 	lea    0x17b7(%rip),%rdi        # 4037a0 <_IO_stdin_used+0x800>
  401fe9:	e8 12 ed ff ff       	callq  400d00 <puts@plt>
  401fee:	48 8d 3d 2a 16 00 00 	lea    0x162a(%rip),%rdi        # 40361f <_IO_stdin_used+0x67f>
  401ff5:	e8 06 ed ff ff       	callq  400d00 <puts@plt>
  401ffa:	be 00 00 00 00       	mov    $0x0,%esi
  401fff:	bf 00 00 00 00       	mov    $0x0,%edi
  402004:	e8 4c fc ff ff       	callq  401c55 <notify_server>
  402009:	bf 01 00 00 00       	mov    $0x1,%edi
  40200e:	e8 6d ee ff ff       	callq  400e80 <exit@plt>

0000000000402013 <illegalhandler>:
  402013:	48 83 ec 08          	sub    $0x8,%rsp
  402017:	83 3d 0a 35 20 00 00 	cmpl   $0x0,0x20350a(%rip)        # 605528 <is_checker>
  40201e:	74 16                	je     402036 <illegalhandler+0x23>
  402020:	48 8d 3d 21 16 00 00 	lea    0x1621(%rip),%rdi        # 403648 <_IO_stdin_used+0x6a8>
  402027:	e8 d4 ec ff ff       	callq  400d00 <puts@plt>
  40202c:	b8 00 00 00 00       	mov    $0x0,%eax
  402031:	e8 95 fb ff ff       	callq  401bcb <check_fail>
  402036:	48 8d 3d 8b 17 00 00 	lea    0x178b(%rip),%rdi        # 4037c8 <_IO_stdin_used+0x828>
  40203d:	e8 be ec ff ff       	callq  400d00 <puts@plt>
  402042:	48 8d 3d d6 15 00 00 	lea    0x15d6(%rip),%rdi        # 40361f <_IO_stdin_used+0x67f>
  402049:	e8 b2 ec ff ff       	callq  400d00 <puts@plt>
  40204e:	be 00 00 00 00       	mov    $0x0,%esi
  402053:	bf 00 00 00 00       	mov    $0x0,%edi
  402058:	e8 f8 fb ff ff       	callq  401c55 <notify_server>
  40205d:	bf 01 00 00 00       	mov    $0x1,%edi
  402062:	e8 19 ee ff ff       	callq  400e80 <exit@plt>

0000000000402067 <sigalrmhandler>:
  402067:	48 83 ec 08          	sub    $0x8,%rsp
  40206b:	83 3d b6 34 20 00 00 	cmpl   $0x0,0x2034b6(%rip)        # 605528 <is_checker>
  402072:	74 16                	je     40208a <sigalrmhandler+0x23>
  402074:	48 8d 3d e1 15 00 00 	lea    0x15e1(%rip),%rdi        # 40365c <_IO_stdin_used+0x6bc>
  40207b:	e8 80 ec ff ff       	callq  400d00 <puts@plt>
  402080:	b8 00 00 00 00       	mov    $0x0,%eax
  402085:	e8 41 fb ff ff       	callq  401bcb <check_fail>
  40208a:	ba 05 00 00 00       	mov    $0x5,%edx
  40208f:	48 8d 35 62 17 00 00 	lea    0x1762(%rip),%rsi        # 4037f8 <_IO_stdin_used+0x858>
  402096:	bf 01 00 00 00       	mov    $0x1,%edi
  40209b:	b8 00 00 00 00       	mov    $0x0,%eax
  4020a0:	e8 8b ed ff ff       	callq  400e30 <__printf_chk@plt>
  4020a5:	be 00 00 00 00       	mov    $0x0,%esi
  4020aa:	bf 00 00 00 00       	mov    $0x0,%edi
  4020af:	e8 a1 fb ff ff       	callq  401c55 <notify_server>
  4020b4:	bf 01 00 00 00       	mov    $0x1,%edi
  4020b9:	e8 c2 ed ff ff       	callq  400e80 <exit@plt>

00000000004020be <launch>:
  4020be:	55                   	push   %rbp
  4020bf:	48 89 e5             	mov    %rsp,%rbp
  4020c2:	48 83 ec 10          	sub    $0x10,%rsp
  4020c6:	48 89 fa             	mov    %rdi,%rdx
  4020c9:	64 48 8b 04 25 28 00 	mov    %fs:0x28,%rax
  4020d0:	00 00 
  4020d2:	48 89 45 f8          	mov    %rax,-0x8(%rbp)
  4020d6:	31 c0                	xor    %eax,%eax
  4020d8:	48 8d 47 1e          	lea    0x1e(%rdi),%rax
  4020dc:	48 83 e0 f0          	and    $0xfffffffffffffff0,%rax
  4020e0:	48 29 c4             	sub    %rax,%rsp
  4020e3:	48 8d 7c 24 0f       	lea    0xf(%rsp),%rdi
  4020e8:	48 83 e7 f0          	and    $0xfffffffffffffff0,%rdi
  4020ec:	be f4 00 00 00       	mov    $0xf4,%esi
  4020f1:	e8 4a ec ff ff       	callq  400d40 <memset@plt>
  4020f6:	48 8b 05 c3 33 20 00 	mov    0x2033c3(%rip),%rax        # 6054c0 <stdin@@GLIBC_2.2.5>
  4020fd:	48 39 05 0c 34 20 00 	cmp    %rax,0x20340c(%rip)        # 605510 <infile>
  402104:	74 3a                	je     402140 <launch+0x82>
  402106:	c7 05 0c 34 20 00 00 	movl   $0x0,0x20340c(%rip)        # 60551c <vlevel>
  40210d:	00 00 00 
  402110:	b8 00 00 00 00       	mov    $0x0,%eax
  402115:	e8 16 fa ff ff       	callq  401b30 <test>
  40211a:	83 3d 07 34 20 00 00 	cmpl   $0x0,0x203407(%rip)        # 605528 <is_checker>
  402121:	75 35                	jne    402158 <launch+0x9a>
  402123:	48 8d 3d 52 15 00 00 	lea    0x1552(%rip),%rdi        # 40367c <_IO_stdin_used+0x6dc>
  40212a:	e8 d1 eb ff ff       	callq  400d00 <puts@plt>
  40212f:	48 8b 45 f8          	mov    -0x8(%rbp),%rax
  402133:	64 48 33 04 25 28 00 	xor    %fs:0x28,%rax
  40213a:	00 00 
  40213c:	75 30                	jne    40216e <launch+0xb0>
  40213e:	c9                   	leaveq 
  40213f:	c3                   	retq   
  402140:	48 8d 35 1d 15 00 00 	lea    0x151d(%rip),%rsi        # 403664 <_IO_stdin_used+0x6c4>
  402147:	bf 01 00 00 00       	mov    $0x1,%edi
  40214c:	b8 00 00 00 00       	mov    $0x0,%eax
  402151:	e8 da ec ff ff       	callq  400e30 <__printf_chk@plt>
  402156:	eb ae                	jmp    402106 <launch+0x48>
  402158:	48 8d 3d 12 15 00 00 	lea    0x1512(%rip),%rdi        # 403671 <_IO_stdin_used+0x6d1>
  40215f:	e8 9c eb ff ff       	callq  400d00 <puts@plt>
  402164:	b8 00 00 00 00       	mov    $0x0,%eax
  402169:	e8 5d fa ff ff       	callq  401bcb <check_fail>
  40216e:	e8 ad eb ff ff       	callq  400d20 <__stack_chk_fail@plt>

0000000000402173 <stable_launch>:
  402173:	53                   	push   %rbx
  402174:	48 89 3d 8d 33 20 00 	mov    %rdi,0x20338d(%rip)        # 605508 <global_offset>
  40217b:	41 b9 00 00 00 00    	mov    $0x0,%r9d
  402181:	41 b8 00 00 00 00    	mov    $0x0,%r8d
  402187:	b9 32 01 00 00       	mov    $0x132,%ecx
  40218c:	ba 07 00 00 00       	mov    $0x7,%edx
  402191:	be 00 00 10 00       	mov    $0x100000,%esi
  402196:	bf 00 60 58 55       	mov    $0x55586000,%edi
  40219b:	e8 90 eb ff ff       	callq  400d30 <mmap@plt>
  4021a0:	48 89 c3             	mov    %rax,%rbx
  4021a3:	48 3d 00 60 58 55    	cmp    $0x55586000,%rax
  4021a9:	75 43                	jne    4021ee <stable_launch+0x7b>
  4021ab:	48 8d 90 f8 ff 0f 00 	lea    0xffff8(%rax),%rdx
  4021b2:	48 89 15 97 3f 20 00 	mov    %rdx,0x203f97(%rip)        # 606150 <stack_top>
  4021b9:	48 89 e0             	mov    %rsp,%rax
  4021bc:	48 89 d4             	mov    %rdx,%rsp
  4021bf:	48 89 c2             	mov    %rax,%rdx
  4021c2:	48 89 15 37 33 20 00 	mov    %rdx,0x203337(%rip)        # 605500 <global_save_stack>
  4021c9:	48 8b 3d 38 33 20 00 	mov    0x203338(%rip),%rdi        # 605508 <global_offset>
  4021d0:	e8 e9 fe ff ff       	callq  4020be <launch>
  4021d5:	48 8b 05 24 33 20 00 	mov    0x203324(%rip),%rax        # 605500 <global_save_stack>
  4021dc:	48 89 c4             	mov    %rax,%rsp
  4021df:	be 00 00 10 00       	mov    $0x100000,%esi
  4021e4:	48 89 df             	mov    %rbx,%rdi
  4021e7:	e8 34 ec ff ff       	callq  400e20 <munmap@plt>
  4021ec:	5b                   	pop    %rbx
  4021ed:	c3                   	retq   
  4021ee:	be 00 00 10 00       	mov    $0x100000,%esi
  4021f3:	48 89 c7             	mov    %rax,%rdi
  4021f6:	e8 25 ec ff ff       	callq  400e20 <munmap@plt>
  4021fb:	b9 00 60 58 55       	mov    $0x55586000,%ecx
  402200:	48 8d 15 29 16 00 00 	lea    0x1629(%rip),%rdx        # 403830 <_IO_stdin_used+0x890>
  402207:	be 01 00 00 00       	mov    $0x1,%esi
  40220c:	48 8b 3d cd 32 20 00 	mov    0x2032cd(%rip),%rdi        # 6054e0 <stderr@@GLIBC_2.2.5>
  402213:	b8 00 00 00 00       	mov    $0x0,%eax
  402218:	e8 83 ec ff ff       	callq  400ea0 <__fprintf_chk@plt>
  40221d:	bf 01 00 00 00       	mov    $0x1,%edi
  402222:	e8 59 ec ff ff       	callq  400e80 <exit@plt>

0000000000402227 <rio_readinitb>:
  402227:	89 37                	mov    %esi,(%rdi)
  402229:	c7 47 04 00 00 00 00 	movl   $0x0,0x4(%rdi)
  402230:	48 8d 47 10          	lea    0x10(%rdi),%rax
  402234:	48 89 47 08          	mov    %rax,0x8(%rdi)
  402238:	c3                   	retq   

0000000000402239 <sigalrm_handler>:
  402239:	48 83 ec 08          	sub    $0x8,%rsp
  40223d:	b9 00 00 00 00       	mov    $0x0,%ecx
  402242:	48 8d 15 27 16 00 00 	lea    0x1627(%rip),%rdx        # 403870 <trans_char+0x10>
  402249:	be 01 00 00 00       	mov    $0x1,%esi
  40224e:	48 8b 3d 8b 32 20 00 	mov    0x20328b(%rip),%rdi        # 6054e0 <stderr@@GLIBC_2.2.5>
  402255:	b8 00 00 00 00       	mov    $0x0,%eax
  40225a:	e8 41 ec ff ff       	callq  400ea0 <__fprintf_chk@plt>
  40225f:	bf 01 00 00 00       	mov    $0x1,%edi
  402264:	e8 17 ec ff ff       	callq  400e80 <exit@plt>

0000000000402269 <rio_writen>:
  402269:	41 55                	push   %r13
  40226b:	41 54                	push   %r12
  40226d:	55                   	push   %rbp
  40226e:	53                   	push   %rbx
  40226f:	48 83 ec 08          	sub    $0x8,%rsp
  402273:	41 89 fc             	mov    %edi,%r12d
  402276:	48 89 f5             	mov    %rsi,%rbp
  402279:	49 89 d5             	mov    %rdx,%r13
  40227c:	48 89 d3             	mov    %rdx,%rbx
  40227f:	eb 06                	jmp    402287 <rio_writen+0x1e>
  402281:	48 29 c3             	sub    %rax,%rbx
  402284:	48 01 c5             	add    %rax,%rbp
  402287:	48 85 db             	test   %rbx,%rbx
  40228a:	74 24                	je     4022b0 <rio_writen+0x47>
  40228c:	48 89 da             	mov    %rbx,%rdx
  40228f:	48 89 ee             	mov    %rbp,%rsi
  402292:	44 89 e7             	mov    %r12d,%edi
  402295:	e8 76 ea ff ff       	callq  400d10 <write@plt>
  40229a:	48 85 c0             	test   %rax,%rax
  40229d:	7f e2                	jg     402281 <rio_writen+0x18>
  40229f:	e8 1c ea ff ff       	callq  400cc0 <__errno_location@plt>
  4022a4:	83 38 04             	cmpl   $0x4,(%rax)
  4022a7:	75 15                	jne    4022be <rio_writen+0x55>
  4022a9:	b8 00 00 00 00       	mov    $0x0,%eax
  4022ae:	eb d1                	jmp    402281 <rio_writen+0x18>
  4022b0:	4c 89 e8             	mov    %r13,%rax
  4022b3:	48 83 c4 08          	add    $0x8,%rsp
  4022b7:	5b                   	pop    %rbx
  4022b8:	5d                   	pop    %rbp
  4022b9:	41 5c                	pop    %r12
  4022bb:	41 5d                	pop    %r13
  4022bd:	c3                   	retq   
  4022be:	48 c7 c0 ff ff ff ff 	mov    $0xffffffffffffffff,%rax
  4022c5:	eb ec                	jmp    4022b3 <rio_writen+0x4a>

00000000004022c7 <rio_read>:
  4022c7:	41 55                	push   %r13
  4022c9:	41 54                	push   %r12
  4022cb:	55                   	push   %rbp
  4022cc:	53                   	push   %rbx
  4022cd:	48 83 ec 08          	sub    $0x8,%rsp
  4022d1:	48 89 fb             	mov    %rdi,%rbx
  4022d4:	49 89 f5             	mov    %rsi,%r13
  4022d7:	49 89 d4             	mov    %rdx,%r12
  4022da:	eb 0a                	jmp    4022e6 <rio_read+0x1f>
  4022dc:	e8 df e9 ff ff       	callq  400cc0 <__errno_location@plt>
  4022e1:	83 38 04             	cmpl   $0x4,(%rax)
  4022e4:	75 5c                	jne    402342 <rio_read+0x7b>
  4022e6:	8b 6b 04             	mov    0x4(%rbx),%ebp
  4022e9:	85 ed                	test   %ebp,%ebp
  4022eb:	7f 24                	jg     402311 <rio_read+0x4a>
  4022ed:	48 8d 6b 10          	lea    0x10(%rbx),%rbp
  4022f1:	8b 3b                	mov    (%rbx),%edi
  4022f3:	ba 00 20 00 00       	mov    $0x2000,%edx
  4022f8:	48 89 ee             	mov    %rbp,%rsi
  4022fb:	e8 70 ea ff ff       	callq  400d70 <read@plt>
  402300:	89 43 04             	mov    %eax,0x4(%rbx)
  402303:	85 c0                	test   %eax,%eax
  402305:	78 d5                	js     4022dc <rio_read+0x15>
  402307:	85 c0                	test   %eax,%eax
  402309:	74 40                	je     40234b <rio_read+0x84>
  40230b:	48 89 6b 08          	mov    %rbp,0x8(%rbx)
  40230f:	eb d5                	jmp    4022e6 <rio_read+0x1f>
  402311:	89 e8                	mov    %ebp,%eax
  402313:	4c 39 e0             	cmp    %r12,%rax
  402316:	72 03                	jb     40231b <rio_read+0x54>
  402318:	44 89 e5             	mov    %r12d,%ebp
  40231b:	4c 63 e5             	movslq %ebp,%r12
  40231e:	48 8b 73 08          	mov    0x8(%rbx),%rsi
  402322:	4c 89 e2             	mov    %r12,%rdx
  402325:	4c 89 ef             	mov    %r13,%rdi
  402328:	e8 a3 ea ff ff       	callq  400dd0 <memcpy@plt>
  40232d:	4c 01 63 08          	add    %r12,0x8(%rbx)
  402331:	29 6b 04             	sub    %ebp,0x4(%rbx)
  402334:	4c 89 e0             	mov    %r12,%rax
  402337:	48 83 c4 08          	add    $0x8,%rsp
  40233b:	5b                   	pop    %rbx
  40233c:	5d                   	pop    %rbp
  40233d:	41 5c                	pop    %r12
  40233f:	41 5d                	pop    %r13
  402341:	c3                   	retq   
  402342:	48 c7 c0 ff ff ff ff 	mov    $0xffffffffffffffff,%rax
  402349:	eb ec                	jmp    402337 <rio_read+0x70>
  40234b:	b8 00 00 00 00       	mov    $0x0,%eax
  402350:	eb e5                	jmp    402337 <rio_read+0x70>

0000000000402352 <rio_readlineb>:
  402352:	41 55                	push   %r13
  402354:	41 54                	push   %r12
  402356:	55                   	push   %rbp
  402357:	53                   	push   %rbx
  402358:	48 83 ec 18          	sub    $0x18,%rsp
  40235c:	49 89 fd             	mov    %rdi,%r13
  40235f:	48 89 f5             	mov    %rsi,%rbp
  402362:	49 89 d4             	mov    %rdx,%r12
  402365:	64 48 8b 04 25 28 00 	mov    %fs:0x28,%rax
  40236c:	00 00 
  40236e:	48 89 44 24 08       	mov    %rax,0x8(%rsp)
  402373:	31 c0                	xor    %eax,%eax
  402375:	bb 01 00 00 00       	mov    $0x1,%ebx
  40237a:	4c 39 e3             	cmp    %r12,%rbx
  40237d:	73 47                	jae    4023c6 <rio_readlineb+0x74>
  40237f:	48 8d 74 24 07       	lea    0x7(%rsp),%rsi
  402384:	ba 01 00 00 00       	mov    $0x1,%edx
  402389:	4c 89 ef             	mov    %r13,%rdi
  40238c:	e8 36 ff ff ff       	callq  4022c7 <rio_read>
  402391:	83 f8 01             	cmp    $0x1,%eax
  402394:	75 1c                	jne    4023b2 <rio_readlineb+0x60>
  402396:	48 8d 45 01          	lea    0x1(%rbp),%rax
  40239a:	0f b6 54 24 07       	movzbl 0x7(%rsp),%edx
  40239f:	88 55 00             	mov    %dl,0x0(%rbp)
  4023a2:	80 7c 24 07 0a       	cmpb   $0xa,0x7(%rsp)
  4023a7:	74 1a                	je     4023c3 <rio_readlineb+0x71>
  4023a9:	48 83 c3 01          	add    $0x1,%rbx
  4023ad:	48 89 c5             	mov    %rax,%rbp
  4023b0:	eb c8                	jmp    40237a <rio_readlineb+0x28>
  4023b2:	85 c0                	test   %eax,%eax
  4023b4:	75 32                	jne    4023e8 <rio_readlineb+0x96>
  4023b6:	48 83 fb 01          	cmp    $0x1,%rbx
  4023ba:	75 0a                	jne    4023c6 <rio_readlineb+0x74>
  4023bc:	b8 00 00 00 00       	mov    $0x0,%eax
  4023c1:	eb 0a                	jmp    4023cd <rio_readlineb+0x7b>
  4023c3:	48 89 c5             	mov    %rax,%rbp
  4023c6:	c6 45 00 00          	movb   $0x0,0x0(%rbp)
  4023ca:	48 89 d8             	mov    %rbx,%rax
  4023cd:	48 8b 4c 24 08       	mov    0x8(%rsp),%rcx
  4023d2:	64 48 33 0c 25 28 00 	xor    %fs:0x28,%rcx
  4023d9:	00 00 
  4023db:	75 14                	jne    4023f1 <rio_readlineb+0x9f>
  4023dd:	48 83 c4 18          	add    $0x18,%rsp
  4023e1:	5b                   	pop    %rbx
  4023e2:	5d                   	pop    %rbp
  4023e3:	41 5c                	pop    %r12
  4023e5:	41 5d                	pop    %r13
  4023e7:	c3                   	retq   
  4023e8:	48 c7 c0 ff ff ff ff 	mov    $0xffffffffffffffff,%rax
  4023ef:	eb dc                	jmp    4023cd <rio_readlineb+0x7b>
  4023f1:	e8 2a e9 ff ff       	callq  400d20 <__stack_chk_fail@plt>

00000000004023f6 <urlencode>:
  4023f6:	41 54                	push   %r12
  4023f8:	55                   	push   %rbp
  4023f9:	53                   	push   %rbx
  4023fa:	48 83 ec 10          	sub    $0x10,%rsp
  4023fe:	48 89 fb             	mov    %rdi,%rbx
  402401:	48 89 f5             	mov    %rsi,%rbp
  402404:	64 48 8b 04 25 28 00 	mov    %fs:0x28,%rax
  40240b:	00 00 
  40240d:	48 89 44 24 08       	mov    %rax,0x8(%rsp)
  402412:	31 c0                	xor    %eax,%eax
  402414:	48 c7 c1 ff ff ff ff 	mov    $0xffffffffffffffff,%rcx
  40241b:	f2 ae                	repnz scas %es:(%rdi),%al
  40241d:	48 89 ce             	mov    %rcx,%rsi
  402420:	48 f7 d6             	not    %rsi
  402423:	8d 46 ff             	lea    -0x1(%rsi),%eax
  402426:	eb 0f                	jmp    402437 <urlencode+0x41>
  402428:	44 88 45 00          	mov    %r8b,0x0(%rbp)
  40242c:	48 8d 6d 01          	lea    0x1(%rbp),%rbp
  402430:	48 83 c3 01          	add    $0x1,%rbx
  402434:	44 89 e0             	mov    %r12d,%eax
  402437:	44 8d 60 ff          	lea    -0x1(%rax),%r12d
  40243b:	85 c0                	test   %eax,%eax
  40243d:	0f 84 a8 00 00 00    	je     4024eb <urlencode+0xf5>
  402443:	44 0f b6 03          	movzbl (%rbx),%r8d
  402447:	41 80 f8 2a          	cmp    $0x2a,%r8b
  40244b:	0f 94 c2             	sete   %dl
  40244e:	41 80 f8 2d          	cmp    $0x2d,%r8b
  402452:	0f 94 c0             	sete   %al
  402455:	08 c2                	or     %al,%dl
  402457:	75 cf                	jne    402428 <urlencode+0x32>
  402459:	41 80 f8 2e          	cmp    $0x2e,%r8b
  40245d:	74 c9                	je     402428 <urlencode+0x32>
  40245f:	41 80 f8 5f          	cmp    $0x5f,%r8b
  402463:	74 c3                	je     402428 <urlencode+0x32>
  402465:	41 8d 40 d0          	lea    -0x30(%r8),%eax
  402469:	3c 09                	cmp    $0x9,%al
  40246b:	76 bb                	jbe    402428 <urlencode+0x32>
  40246d:	41 8d 40 bf          	lea    -0x41(%r8),%eax
  402471:	3c 19                	cmp    $0x19,%al
  402473:	76 b3                	jbe    402428 <urlencode+0x32>
  402475:	41 8d 40 9f          	lea    -0x61(%r8),%eax
  402479:	3c 19                	cmp    $0x19,%al
  40247b:	76 ab                	jbe    402428 <urlencode+0x32>
  40247d:	41 80 f8 20          	cmp    $0x20,%r8b
  402481:	74 56                	je     4024d9 <urlencode+0xe3>
  402483:	41 8d 40 e0          	lea    -0x20(%r8),%eax
  402487:	3c 5f                	cmp    $0x5f,%al
  402489:	0f 96 c2             	setbe  %dl
  40248c:	41 80 f8 09          	cmp    $0x9,%r8b
  402490:	0f 94 c0             	sete   %al
  402493:	08 c2                	or     %al,%dl
  402495:	74 4f                	je     4024e6 <urlencode+0xf0>
  402497:	48 89 e7             	mov    %rsp,%rdi
  40249a:	45 0f b6 c0          	movzbl %r8b,%r8d
  40249e:	48 8d 0d 63 14 00 00 	lea    0x1463(%rip),%rcx        # 403908 <trans_char+0xa8>
  4024a5:	ba 08 00 00 00       	mov    $0x8,%edx
  4024aa:	be 01 00 00 00       	mov    $0x1,%esi
  4024af:	b8 00 00 00 00       	mov    $0x0,%eax
  4024b4:	e8 f7 e9 ff ff       	callq  400eb0 <__sprintf_chk@plt>
  4024b9:	0f b6 04 24          	movzbl (%rsp),%eax
  4024bd:	88 45 00             	mov    %al,0x0(%rbp)
  4024c0:	0f b6 44 24 01       	movzbl 0x1(%rsp),%eax
  4024c5:	88 45 01             	mov    %al,0x1(%rbp)
  4024c8:	0f b6 44 24 02       	movzbl 0x2(%rsp),%eax
  4024cd:	88 45 02             	mov    %al,0x2(%rbp)
  4024d0:	48 8d 6d 03          	lea    0x3(%rbp),%rbp
  4024d4:	e9 57 ff ff ff       	jmpq   402430 <urlencode+0x3a>
  4024d9:	c6 45 00 2b          	movb   $0x2b,0x0(%rbp)
  4024dd:	48 8d 6d 01          	lea    0x1(%rbp),%rbp
  4024e1:	e9 4a ff ff ff       	jmpq   402430 <urlencode+0x3a>
  4024e6:	b8 ff ff ff ff       	mov    $0xffffffff,%eax
  4024eb:	48 8b 74 24 08       	mov    0x8(%rsp),%rsi
  4024f0:	64 48 33 34 25 28 00 	xor    %fs:0x28,%rsi
  4024f7:	00 00 
  4024f9:	75 09                	jne    402504 <urlencode+0x10e>
  4024fb:	48 83 c4 10          	add    $0x10,%rsp
  4024ff:	5b                   	pop    %rbx
  402500:	5d                   	pop    %rbp
  402501:	41 5c                	pop    %r12
  402503:	c3                   	retq   
  402504:	e8 17 e8 ff ff       	callq  400d20 <__stack_chk_fail@plt>

0000000000402509 <submitr>:
  402509:	41 57                	push   %r15
  40250b:	41 56                	push   %r14
  40250d:	41 55                	push   %r13
  40250f:	41 54                	push   %r12
  402511:	55                   	push   %rbp
  402512:	53                   	push   %rbx
  402513:	48 81 ec 58 a0 00 00 	sub    $0xa058,%rsp
  40251a:	49 89 ff             	mov    %rdi,%r15
  40251d:	89 74 24 04          	mov    %esi,0x4(%rsp)
  402521:	49 89 d6             	mov    %rdx,%r14
  402524:	49 89 cd             	mov    %rcx,%r13
  402527:	4c 89 44 24 08       	mov    %r8,0x8(%rsp)
  40252c:	4d 89 cc             	mov    %r9,%r12
  40252f:	48 8b ac 24 90 a0 00 	mov    0xa090(%rsp),%rbp
  402536:	00 
  402537:	64 48 8b 04 25 28 00 	mov    %fs:0x28,%rax
  40253e:	00 00 
  402540:	48 89 84 24 48 a0 00 	mov    %rax,0xa048(%rsp)
  402547:	00 
  402548:	31 c0                	xor    %eax,%eax
  40254a:	c7 44 24 1c 00 00 00 	movl   $0x0,0x1c(%rsp)
  402551:	00 
  402552:	ba 00 00 00 00       	mov    $0x0,%edx
  402557:	be 01 00 00 00       	mov    $0x1,%esi
  40255c:	bf 02 00 00 00       	mov    $0x2,%edi
  402561:	e8 5a e9 ff ff       	callq  400ec0 <socket@plt>
  402566:	85 c0                	test   %eax,%eax
  402568:	0f 88 6f 02 00 00    	js     4027dd <submitr+0x2d4>
  40256e:	89 c3                	mov    %eax,%ebx
  402570:	66 c7 44 24 20 02 00 	movw   $0x2,0x20(%rsp)
  402577:	48 8d 3d 91 13 00 00 	lea    0x1391(%rip),%rdi        # 40390f <trans_char+0xaf>
  40257e:	e8 0d e8 ff ff       	callq  400d90 <inet_addr@plt>
  402583:	89 44 24 24          	mov    %eax,0x24(%rsp)
  402587:	0f b7 44 24 04       	movzwl 0x4(%rsp),%eax
  40258c:	66 c1 c8 08          	ror    $0x8,%ax
  402590:	66 89 44 24 22       	mov    %ax,0x22(%rsp)
  402595:	48 8d 74 24 20       	lea    0x20(%rsp),%rsi
  40259a:	ba 10 00 00 00       	mov    $0x10,%edx
  40259f:	89 df                	mov    %ebx,%edi
  4025a1:	e8 ea e8 ff ff       	callq  400e90 <connect@plt>
  4025a6:	85 c0                	test   %eax,%eax
  4025a8:	0f 85 7b 02 00 00    	jne    402829 <submitr+0x320>
  4025ae:	48 c7 c6 ff ff ff ff 	mov    $0xffffffffffffffff,%rsi
  4025b5:	b8 00 00 00 00       	mov    $0x0,%eax
  4025ba:	48 89 f1             	mov    %rsi,%rcx
  4025bd:	4c 89 e7             	mov    %r12,%rdi
  4025c0:	f2 ae                	repnz scas %es:(%rdi),%al
  4025c2:	48 89 ca             	mov    %rcx,%rdx
  4025c5:	48 f7 d2             	not    %rdx
  4025c8:	48 89 f1             	mov    %rsi,%rcx
  4025cb:	4c 89 f7             	mov    %r14,%rdi
  4025ce:	f2 ae                	repnz scas %es:(%rdi),%al
  4025d0:	48 f7 d1             	not    %rcx
  4025d3:	49 89 c8             	mov    %rcx,%r8
  4025d6:	48 89 f1             	mov    %rsi,%rcx
  4025d9:	4c 89 ef             	mov    %r13,%rdi
  4025dc:	f2 ae                	repnz scas %es:(%rdi),%al
  4025de:	48 f7 d1             	not    %rcx
  4025e1:	4d 8d 44 08 fe       	lea    -0x2(%r8,%rcx,1),%r8
  4025e6:	48 89 f1             	mov    %rsi,%rcx
  4025e9:	48 8b 7c 24 08       	mov    0x8(%rsp),%rdi
  4025ee:	f2 ae                	repnz scas %es:(%rdi),%al
  4025f0:	48 89 c8             	mov    %rcx,%rax
  4025f3:	48 f7 d0             	not    %rax
  4025f6:	49 8d 4c 00 ff       	lea    -0x1(%r8,%rax,1),%rcx
  4025fb:	48 8d 44 52 fd       	lea    -0x3(%rdx,%rdx,2),%rax
  402600:	48 8d 84 01 80 00 00 	lea    0x80(%rcx,%rax,1),%rax
  402607:	00 
  402608:	48 3d 00 20 00 00    	cmp    $0x2000,%rax
  40260e:	0f 87 7d 02 00 00    	ja     402891 <submitr+0x388>
  402614:	48 8d b4 24 40 40 00 	lea    0x4040(%rsp),%rsi
  40261b:	00 
  40261c:	b9 00 04 00 00       	mov    $0x400,%ecx
  402621:	b8 00 00 00 00       	mov    $0x0,%eax
  402626:	48 89 f7             	mov    %rsi,%rdi
  402629:	f3 48 ab             	rep stos %rax,%es:(%rdi)
  40262c:	4c 89 e7             	mov    %r12,%rdi
  40262f:	e8 c2 fd ff ff       	callq  4023f6 <urlencode>
  402634:	85 c0                	test   %eax,%eax
  402636:	0f 88 c8 02 00 00    	js     402904 <submitr+0x3fb>
  40263c:	4c 8d a4 24 40 20 00 	lea    0x2040(%rsp),%r12
  402643:	00 
  402644:	41 57                	push   %r15
  402646:	48 8d 84 24 48 40 00 	lea    0x4048(%rsp),%rax
  40264d:	00 
  40264e:	50                   	push   %rax
  40264f:	4d 89 f1             	mov    %r14,%r9
  402652:	4d 89 e8             	mov    %r13,%r8
  402655:	48 8d 0d 3c 12 00 00 	lea    0x123c(%rip),%rcx        # 403898 <trans_char+0x38>
  40265c:	ba 00 20 00 00       	mov    $0x2000,%edx
  402661:	be 01 00 00 00       	mov    $0x1,%esi
  402666:	4c 89 e7             	mov    %r12,%rdi
  402669:	b8 00 00 00 00       	mov    $0x0,%eax
  40266e:	e8 3d e8 ff ff       	callq  400eb0 <__sprintf_chk@plt>
  402673:	48 c7 c1 ff ff ff ff 	mov    $0xffffffffffffffff,%rcx
  40267a:	b8 00 00 00 00       	mov    $0x0,%eax
  40267f:	4c 89 e7             	mov    %r12,%rdi
  402682:	f2 ae                	repnz scas %es:(%rdi),%al
  402684:	48 89 ca             	mov    %rcx,%rdx
  402687:	48 f7 d2             	not    %rdx
  40268a:	48 8d 52 ff          	lea    -0x1(%rdx),%rdx
  40268e:	4c 89 e6             	mov    %r12,%rsi
  402691:	89 df                	mov    %ebx,%edi
  402693:	e8 d1 fb ff ff       	callq  402269 <rio_writen>
  402698:	48 83 c4 10          	add    $0x10,%rsp
  40269c:	48 85 c0             	test   %rax,%rax
  40269f:	0f 88 ea 02 00 00    	js     40298f <submitr+0x486>
  4026a5:	4c 8d 64 24 30       	lea    0x30(%rsp),%r12
  4026aa:	89 de                	mov    %ebx,%esi
  4026ac:	4c 89 e7             	mov    %r12,%rdi
  4026af:	e8 73 fb ff ff       	callq  402227 <rio_readinitb>
  4026b4:	48 8d b4 24 40 20 00 	lea    0x2040(%rsp),%rsi
  4026bb:	00 
  4026bc:	ba 00 20 00 00       	mov    $0x2000,%edx
  4026c1:	4c 89 e7             	mov    %r12,%rdi
  4026c4:	e8 89 fc ff ff       	callq  402352 <rio_readlineb>
  4026c9:	48 85 c0             	test   %rax,%rax
  4026cc:	0f 8e 2c 03 00 00    	jle    4029fe <submitr+0x4f5>
  4026d2:	48 8d 4c 24 1c       	lea    0x1c(%rsp),%rcx
  4026d7:	48 8d 94 24 40 60 00 	lea    0x6040(%rsp),%rdx
  4026de:	00 
  4026df:	48 8d bc 24 40 20 00 	lea    0x2040(%rsp),%rdi
  4026e6:	00 
  4026e7:	4c 8d 84 24 40 80 00 	lea    0x8040(%rsp),%r8
  4026ee:	00 
  4026ef:	48 8d 35 26 12 00 00 	lea    0x1226(%rip),%rsi        # 40391c <trans_char+0xbc>
  4026f6:	b8 00 00 00 00       	mov    $0x0,%eax
  4026fb:	e8 10 e7 ff ff       	callq  400e10 <__isoc99_sscanf@plt>
  402700:	48 8d b4 24 40 20 00 	lea    0x2040(%rsp),%rsi
  402707:	00 
  402708:	b9 03 00 00 00       	mov    $0x3,%ecx
  40270d:	48 8d 3d 1f 12 00 00 	lea    0x121f(%rip),%rdi        # 403933 <trans_char+0xd3>
  402714:	f3 a6                	repz cmpsb %es:(%rdi),%ds:(%rsi)
  402716:	0f 97 c0             	seta   %al
  402719:	1c 00                	sbb    $0x0,%al
  40271b:	84 c0                	test   %al,%al
  40271d:	0f 84 59 03 00 00    	je     402a7c <submitr+0x573>
  402723:	48 8d b4 24 40 20 00 	lea    0x2040(%rsp),%rsi
  40272a:	00 
  40272b:	48 8d 7c 24 30       	lea    0x30(%rsp),%rdi
  402730:	ba 00 20 00 00       	mov    $0x2000,%edx
  402735:	e8 18 fc ff ff       	callq  402352 <rio_readlineb>
  40273a:	48 85 c0             	test   %rax,%rax
  40273d:	7f c1                	jg     402700 <submitr+0x1f7>
  40273f:	48 b8 45 72 72 6f 72 	movabs $0x43203a726f727245,%rax
  402746:	3a 20 43 
  402749:	48 ba 6c 69 65 6e 74 	movabs $0x6e7520746e65696c,%rdx
  402750:	20 75 6e 
  402753:	48 89 45 00          	mov    %rax,0x0(%rbp)
  402757:	48 89 55 08          	mov    %rdx,0x8(%rbp)
  40275b:	48 b8 61 62 6c 65 20 	movabs $0x206f7420656c6261,%rax
  402762:	74 6f 20 
  402765:	48 ba 72 65 61 64 20 	movabs $0x6165682064616572,%rdx
  40276c:	68 65 61 
  40276f:	48 89 45 10          	mov    %rax,0x10(%rbp)
  402773:	48 89 55 18          	mov    %rdx,0x18(%rbp)
  402777:	48 b8 64 65 72 73 20 	movabs $0x6f72662073726564,%rax
  40277e:	66 72 6f 
  402781:	48 ba 6d 20 74 68 65 	movabs $0x657220656874206d,%rdx
  402788:	20 72 65 
  40278b:	48 89 45 20          	mov    %rax,0x20(%rbp)
  40278f:	48 89 55 28          	mov    %rdx,0x28(%rbp)
  402793:	48 b8 73 75 6c 74 20 	movabs $0x72657320746c7573,%rax
  40279a:	73 65 72 
  40279d:	48 89 45 30          	mov    %rax,0x30(%rbp)
  4027a1:	c7 45 38 76 65 72 00 	movl   $0x726576,0x38(%rbp)
  4027a8:	89 df                	mov    %ebx,%edi
  4027aa:	e8 b1 e5 ff ff       	callq  400d60 <close@plt>
  4027af:	b8 ff ff ff ff       	mov    $0xffffffff,%eax
  4027b4:	48 8b 9c 24 48 a0 00 	mov    0xa048(%rsp),%rbx
  4027bb:	00 
  4027bc:	64 48 33 1c 25 28 00 	xor    %fs:0x28,%rbx
  4027c3:	00 00 
  4027c5:	0f 85 24 04 00 00    	jne    402bef <submitr+0x6e6>
  4027cb:	48 81 c4 58 a0 00 00 	add    $0xa058,%rsp
  4027d2:	5b                   	pop    %rbx
  4027d3:	5d                   	pop    %rbp
  4027d4:	41 5c                	pop    %r12
  4027d6:	41 5d                	pop    %r13
  4027d8:	41 5e                	pop    %r14
  4027da:	41 5f                	pop    %r15
  4027dc:	c3                   	retq   
  4027dd:	48 b8 45 72 72 6f 72 	movabs $0x43203a726f727245,%rax
  4027e4:	3a 20 43 
  4027e7:	48 ba 6c 69 65 6e 74 	movabs $0x6e7520746e65696c,%rdx
  4027ee:	20 75 6e 
  4027f1:	48 89 45 00          	mov    %rax,0x0(%rbp)
  4027f5:	48 89 55 08          	mov    %rdx,0x8(%rbp)
  4027f9:	48 b8 61 62 6c 65 20 	movabs $0x206f7420656c6261,%rax
  402800:	74 6f 20 
  402803:	48 ba 63 72 65 61 74 	movabs $0x7320657461657263,%rdx
  40280a:	65 20 73 
  40280d:	48 89 45 10          	mov    %rax,0x10(%rbp)
  402811:	48 89 55 18          	mov    %rdx,0x18(%rbp)
  402815:	c7 45 20 6f 63 6b 65 	movl   $0x656b636f,0x20(%rbp)
  40281c:	66 c7 45 24 74 00    	movw   $0x74,0x24(%rbp)
  402822:	b8 ff ff ff ff       	mov    $0xffffffff,%eax
  402827:	eb 8b                	jmp    4027b4 <submitr+0x2ab>
  402829:	48 b8 45 72 72 6f 72 	movabs $0x44203a726f727245,%rax
  402830:	3a 20 44 
  402833:	48 ba 4e 53 20 69 73 	movabs $0x6e7520736920534e,%rdx
  40283a:	20 75 6e 
  40283d:	48 89 45 00          	mov    %rax,0x0(%rbp)
  402841:	48 89 55 08          	mov    %rdx,0x8(%rbp)
  402845:	48 b8 61 62 6c 65 20 	movabs $0x206f7420656c6261,%rax
  40284c:	74 6f 20 
  40284f:	48 ba 72 65 73 6f 6c 	movabs $0x2065766c6f736572,%rdx
  402856:	76 65 20 
  402859:	48 89 45 10          	mov    %rax,0x10(%rbp)
  40285d:	48 89 55 18          	mov    %rdx,0x18(%rbp)
  402861:	48 b8 73 65 72 76 65 	movabs $0x6120726576726573,%rax
  402868:	72 20 61 
  40286b:	48 89 45 20          	mov    %rax,0x20(%rbp)
  40286f:	c7 45 28 64 64 72 65 	movl   $0x65726464,0x28(%rbp)
  402876:	66 c7 45 2c 73 73    	movw   $0x7373,0x2c(%rbp)
  40287c:	c6 45 2e 00          	movb   $0x0,0x2e(%rbp)
  402880:	89 df                	mov    %ebx,%edi
  402882:	e8 d9 e4 ff ff       	callq  400d60 <close@plt>
  402887:	b8 ff ff ff ff       	mov    $0xffffffff,%eax
  40288c:	e9 23 ff ff ff       	jmpq   4027b4 <submitr+0x2ab>
  402891:	48 b8 45 72 72 6f 72 	movabs $0x52203a726f727245,%rax
  402898:	3a 20 52 
  40289b:	48 ba 65 73 75 6c 74 	movabs $0x747320746c757365,%rdx
  4028a2:	20 73 74 
  4028a5:	48 89 45 00          	mov    %rax,0x0(%rbp)
  4028a9:	48 89 55 08          	mov    %rdx,0x8(%rbp)
  4028ad:	48 b8 72 69 6e 67 20 	movabs $0x6f6f7420676e6972,%rax
  4028b4:	74 6f 6f 
  4028b7:	48 ba 20 6c 61 72 67 	movabs $0x202e656772616c20,%rdx
  4028be:	65 2e 20 
  4028c1:	48 89 45 10          	mov    %rax,0x10(%rbp)
  4028c5:	48 89 55 18          	mov    %rdx,0x18(%rbp)
  4028c9:	48 b8 49 6e 63 72 65 	movabs $0x6573616572636e49,%rax
  4028d0:	61 73 65 
  4028d3:	48 ba 20 53 55 42 4d 	movabs $0x5254494d42555320,%rdx
  4028da:	49 54 52 
  4028dd:	48 89 45 20          	mov    %rax,0x20(%rbp)
  4028e1:	48 89 55 28          	mov    %rdx,0x28(%rbp)
  4028e5:	48 b8 5f 4d 41 58 42 	movabs $0x46554258414d5f,%rax
  4028ec:	55 46 00 
  4028ef:	48 89 45 30          	mov    %rax,0x30(%rbp)
  4028f3:	89 df                	mov    %ebx,%edi
  4028f5:	e8 66 e4 ff ff       	callq  400d60 <close@plt>
  4028fa:	b8 ff ff ff ff       	mov    $0xffffffff,%eax
  4028ff:	e9 b0 fe ff ff       	jmpq   4027b4 <submitr+0x2ab>
  402904:	48 b8 45 72 72 6f 72 	movabs $0x52203a726f727245,%rax
  40290b:	3a 20 52 
  40290e:	48 ba 65 73 75 6c 74 	movabs $0x747320746c757365,%rdx
  402915:	20 73 74 
  402918:	48 89 45 00          	mov    %rax,0x0(%rbp)
  40291c:	48 89 55 08          	mov    %rdx,0x8(%rbp)
  402920:	48 b8 72 69 6e 67 20 	movabs $0x6e6f6320676e6972,%rax
  402927:	63 6f 6e 
  40292a:	48 ba 74 61 69 6e 73 	movabs $0x6e6120736e696174,%rdx
  402931:	20 61 6e 
  402934:	48 89 45 10          	mov    %rax,0x10(%rbp)
  402938:	48 89 55 18          	mov    %rdx,0x18(%rbp)
  40293c:	48 b8 20 69 6c 6c 65 	movabs $0x6c6167656c6c6920,%rax
  402943:	67 61 6c 
  402946:	48 ba 20 6f 72 20 75 	movabs $0x72706e7520726f20,%rdx
  40294d:	6e 70 72 
  402950:	48 89 45 20          	mov    %rax,0x20(%rbp)
  402954:	48 89 55 28          	mov    %rdx,0x28(%rbp)
  402958:	48 b8 69 6e 74 61 62 	movabs $0x20656c6261746e69,%rax
  40295f:	6c 65 20 
  402962:	48 ba 63 68 61 72 61 	movabs $0x6574636172616863,%rdx
  402969:	63 74 65 
  40296c:	48 89 45 30          	mov    %rax,0x30(%rbp)
  402970:	48 89 55 38          	mov    %rdx,0x38(%rbp)
  402974:	66 c7 45 40 72 2e    	movw   $0x2e72,0x40(%rbp)
  40297a:	c6 45 42 00          	movb   $0x0,0x42(%rbp)
  40297e:	89 df                	mov    %ebx,%edi
  402980:	e8 db e3 ff ff       	callq  400d60 <close@plt>
  402985:	b8 ff ff ff ff       	mov    $0xffffffff,%eax
  40298a:	e9 25 fe ff ff       	jmpq   4027b4 <submitr+0x2ab>
  40298f:	48 b8 45 72 72 6f 72 	movabs $0x43203a726f727245,%rax
  402996:	3a 20 43 
  402999:	48 ba 6c 69 65 6e 74 	movabs $0x6e7520746e65696c,%rdx
  4029a0:	20 75 6e 
  4029a3:	48 89 45 00          	mov    %rax,0x0(%rbp)
  4029a7:	48 89 55 08          	mov    %rdx,0x8(%rbp)
  4029ab:	48 b8 61 62 6c 65 20 	movabs $0x206f7420656c6261,%rax
  4029b2:	74 6f 20 
  4029b5:	48 ba 77 72 69 74 65 	movabs $0x6f74206574697277,%rdx
  4029bc:	20 74 6f 
  4029bf:	48 89 45 10          	mov    %rax,0x10(%rbp)
  4029c3:	48 89 55 18          	mov    %rdx,0x18(%rbp)
  4029c7:	48 b8 20 74 68 65 20 	movabs $0x7365722065687420,%rax
  4029ce:	72 65 73 
  4029d1:	48 ba 75 6c 74 20 73 	movabs $0x7672657320746c75,%rdx
  4029d8:	65 72 76 
  4029db:	48 89 45 20          	mov    %rax,0x20(%rbp)
  4029df:	48 89 55 28          	mov    %rdx,0x28(%rbp)
  4029e3:	66 c7 45 30 65 72    	movw   $0x7265,0x30(%rbp)
  4029e9:	c6 45 32 00          	movb   $0x0,0x32(%rbp)
  4029ed:	89 df                	mov    %ebx,%edi
  4029ef:	e8 6c e3 ff ff       	callq  400d60 <close@plt>
  4029f4:	b8 ff ff ff ff       	mov    $0xffffffff,%eax
  4029f9:	e9 b6 fd ff ff       	jmpq   4027b4 <submitr+0x2ab>
  4029fe:	48 b8 45 72 72 6f 72 	movabs $0x43203a726f727245,%rax
  402a05:	3a 20 43 
  402a08:	48 ba 6c 69 65 6e 74 	movabs $0x6e7520746e65696c,%rdx
  402a0f:	20 75 6e 
  402a12:	48 89 45 00          	mov    %rax,0x0(%rbp)
  402a16:	48 89 55 08          	mov    %rdx,0x8(%rbp)
  402a1a:	48 b8 61 62 6c 65 20 	movabs $0x206f7420656c6261,%rax
  402a21:	74 6f 20 
  402a24:	48 ba 72 65 61 64 20 	movabs $0x7269662064616572,%rdx
  402a2b:	66 69 72 
  402a2e:	48 89 45 10          	mov    %rax,0x10(%rbp)
  402a32:	48 89 55 18          	mov    %rdx,0x18(%rbp)
  402a36:	48 b8 73 74 20 68 65 	movabs $0x6564616568207473,%rax
  402a3d:	61 64 65 
  402a40:	48 ba 72 20 66 72 6f 	movabs $0x72206d6f72662072,%rdx
  402a47:	6d 20 72 
  402a4a:	48 89 45 20          	mov    %rax,0x20(%rbp)
  402a4e:	48 89 55 28          	mov    %rdx,0x28(%rbp)
  402a52:	48 b8 65 73 75 6c 74 	movabs $0x657320746c757365,%rax
  402a59:	20 73 65 
  402a5c:	48 89 45 30          	mov    %rax,0x30(%rbp)
  402a60:	c7 45 38 72 76 65 72 	movl   $0x72657672,0x38(%rbp)
  402a67:	c6 45 3c 00          	movb   $0x0,0x3c(%rbp)
  402a6b:	89 df                	mov    %ebx,%edi
  402a6d:	e8 ee e2 ff ff       	callq  400d60 <close@plt>
  402a72:	b8 ff ff ff ff       	mov    $0xffffffff,%eax
  402a77:	e9 38 fd ff ff       	jmpq   4027b4 <submitr+0x2ab>
  402a7c:	48 8d b4 24 40 20 00 	lea    0x2040(%rsp),%rsi
  402a83:	00 
  402a84:	48 8d 7c 24 30       	lea    0x30(%rsp),%rdi
  402a89:	ba 00 20 00 00       	mov    $0x2000,%edx
  402a8e:	e8 bf f8 ff ff       	callq  402352 <rio_readlineb>
  402a93:	48 85 c0             	test   %rax,%rax
  402a96:	0f 8e 96 00 00 00    	jle    402b32 <submitr+0x629>
  402a9c:	44 8b 44 24 1c       	mov    0x1c(%rsp),%r8d
  402aa1:	41 81 f8 c8 00 00 00 	cmp    $0xc8,%r8d
  402aa8:	0f 85 08 01 00 00    	jne    402bb6 <submitr+0x6ad>
  402aae:	48 8d b4 24 40 20 00 	lea    0x2040(%rsp),%rsi
  402ab5:	00 
  402ab6:	48 89 ef             	mov    %rbp,%rdi
  402ab9:	e8 32 e2 ff ff       	callq  400cf0 <strcpy@plt>
  402abe:	89 df                	mov    %ebx,%edi
  402ac0:	e8 9b e2 ff ff       	callq  400d60 <close@plt>
  402ac5:	b9 04 00 00 00       	mov    $0x4,%ecx
  402aca:	48 8d 3d 5c 0e 00 00 	lea    0xe5c(%rip),%rdi        # 40392d <trans_char+0xcd>
  402ad1:	48 89 ee             	mov    %rbp,%rsi
  402ad4:	f3 a6                	repz cmpsb %es:(%rdi),%ds:(%rsi)
  402ad6:	0f 97 c0             	seta   %al
  402ad9:	1c 00                	sbb    $0x0,%al
  402adb:	0f be c0             	movsbl %al,%eax
  402ade:	85 c0                	test   %eax,%eax
  402ae0:	0f 84 ce fc ff ff    	je     4027b4 <submitr+0x2ab>
  402ae6:	b9 05 00 00 00       	mov    $0x5,%ecx
  402aeb:	48 8d 3d 3f 0e 00 00 	lea    0xe3f(%rip),%rdi        # 403931 <trans_char+0xd1>
  402af2:	48 89 ee             	mov    %rbp,%rsi
  402af5:	f3 a6                	repz cmpsb %es:(%rdi),%ds:(%rsi)
  402af7:	0f 97 c0             	seta   %al
  402afa:	1c 00                	sbb    $0x0,%al
  402afc:	0f be c0             	movsbl %al,%eax
  402aff:	85 c0                	test   %eax,%eax
  402b01:	0f 84 ad fc ff ff    	je     4027b4 <submitr+0x2ab>
  402b07:	b9 03 00 00 00       	mov    $0x3,%ecx
  402b0c:	48 8d 3d 23 0e 00 00 	lea    0xe23(%rip),%rdi        # 403936 <trans_char+0xd6>
  402b13:	48 89 ee             	mov    %rbp,%rsi
  402b16:	f3 a6                	repz cmpsb %es:(%rdi),%ds:(%rsi)
  402b18:	0f 97 c0             	seta   %al
  402b1b:	1c 00                	sbb    $0x0,%al
  402b1d:	0f be c0             	movsbl %al,%eax
  402b20:	85 c0                	test   %eax,%eax
  402b22:	0f 84 8c fc ff ff    	je     4027b4 <submitr+0x2ab>
  402b28:	b8 ff ff ff ff       	mov    $0xffffffff,%eax
  402b2d:	e9 82 fc ff ff       	jmpq   4027b4 <submitr+0x2ab>
  402b32:	48 b8 45 72 72 6f 72 	movabs $0x43203a726f727245,%rax
  402b39:	3a 20 43 
  402b3c:	48 ba 6c 69 65 6e 74 	movabs $0x6e7520746e65696c,%rdx
  402b43:	20 75 6e 
  402b46:	48 89 45 00          	mov    %rax,0x0(%rbp)
  402b4a:	48 89 55 08          	mov    %rdx,0x8(%rbp)
  402b4e:	48 b8 61 62 6c 65 20 	movabs $0x206f7420656c6261,%rax
  402b55:	74 6f 20 
  402b58:	48 ba 72 65 61 64 20 	movabs $0x6174732064616572,%rdx
  402b5f:	73 74 61 
  402b62:	48 89 45 10          	mov    %rax,0x10(%rbp)
  402b66:	48 89 55 18          	mov    %rdx,0x18(%rbp)
  402b6a:	48 b8 74 75 73 20 6d 	movabs $0x7373656d20737574,%rax
  402b71:	65 73 73 
  402b74:	48 ba 61 67 65 20 66 	movabs $0x6d6f726620656761,%rdx
  402b7b:	72 6f 6d 
  402b7e:	48 89 45 20          	mov    %rax,0x20(%rbp)
  402b82:	48 89 55 28          	mov    %rdx,0x28(%rbp)
  402b86:	48 b8 20 72 65 73 75 	movabs $0x20746c7573657220,%rax
  402b8d:	6c 74 20 
  402b90:	48 89 45 30          	mov    %rax,0x30(%rbp)
  402b94:	c7 45 38 73 65 72 76 	movl   $0x76726573,0x38(%rbp)
  402b9b:	66 c7 45 3c 65 72    	movw   $0x7265,0x3c(%rbp)
  402ba1:	c6 45 3e 00          	movb   $0x0,0x3e(%rbp)
  402ba5:	89 df                	mov    %ebx,%edi
  402ba7:	e8 b4 e1 ff ff       	callq  400d60 <close@plt>
  402bac:	b8 ff ff ff ff       	mov    $0xffffffff,%eax
  402bb1:	e9 fe fb ff ff       	jmpq   4027b4 <submitr+0x2ab>
  402bb6:	4c 8d 8c 24 40 80 00 	lea    0x8040(%rsp),%r9
  402bbd:	00 
  402bbe:	48 8d 0d 13 0d 00 00 	lea    0xd13(%rip),%rcx        # 4038d8 <trans_char+0x78>
  402bc5:	48 c7 c2 ff ff ff ff 	mov    $0xffffffffffffffff,%rdx
  402bcc:	be 01 00 00 00       	mov    $0x1,%esi
  402bd1:	48 89 ef             	mov    %rbp,%rdi
  402bd4:	b8 00 00 00 00       	mov    $0x0,%eax
  402bd9:	e8 d2 e2 ff ff       	callq  400eb0 <__sprintf_chk@plt>
  402bde:	89 df                	mov    %ebx,%edi
  402be0:	e8 7b e1 ff ff       	callq  400d60 <close@plt>
  402be5:	b8 ff ff ff ff       	mov    $0xffffffff,%eax
  402bea:	e9 c5 fb ff ff       	jmpq   4027b4 <submitr+0x2ab>
  402bef:	e8 2c e1 ff ff       	callq  400d20 <__stack_chk_fail@plt>

0000000000402bf4 <init_timeout>:
  402bf4:	85 ff                	test   %edi,%edi
  402bf6:	74 28                	je     402c20 <init_timeout+0x2c>
  402bf8:	53                   	push   %rbx
  402bf9:	89 fb                	mov    %edi,%ebx
  402bfb:	85 ff                	test   %edi,%edi
  402bfd:	78 1a                	js     402c19 <init_timeout+0x25>
  402bff:	48 8d 35 33 f6 ff ff 	lea    -0x9cd(%rip),%rsi        # 402239 <sigalrm_handler>
  402c06:	bf 0e 00 00 00       	mov    $0xe,%edi
  402c0b:	e8 90 e1 ff ff       	callq  400da0 <signal@plt>
  402c10:	89 df                	mov    %ebx,%edi
  402c12:	e8 39 e1 ff ff       	callq  400d50 <alarm@plt>
  402c17:	5b                   	pop    %rbx
  402c18:	c3                   	retq   
  402c19:	bb 00 00 00 00       	mov    $0x0,%ebx
  402c1e:	eb df                	jmp    402bff <init_timeout+0xb>
  402c20:	f3 c3                	repz retq 

0000000000402c22 <init_driver>:
  402c22:	41 54                	push   %r12
  402c24:	55                   	push   %rbp
  402c25:	53                   	push   %rbx
  402c26:	48 83 ec 20          	sub    $0x20,%rsp
  402c2a:	49 89 fc             	mov    %rdi,%r12
  402c2d:	64 48 8b 04 25 28 00 	mov    %fs:0x28,%rax
  402c34:	00 00 
  402c36:	48 89 44 24 18       	mov    %rax,0x18(%rsp)
  402c3b:	31 c0                	xor    %eax,%eax
  402c3d:	be 01 00 00 00       	mov    $0x1,%esi
  402c42:	bf 0d 00 00 00       	mov    $0xd,%edi
  402c47:	e8 54 e1 ff ff       	callq  400da0 <signal@plt>
  402c4c:	be 01 00 00 00       	mov    $0x1,%esi
  402c51:	bf 1d 00 00 00       	mov    $0x1d,%edi
  402c56:	e8 45 e1 ff ff       	callq  400da0 <signal@plt>
  402c5b:	be 01 00 00 00       	mov    $0x1,%esi
  402c60:	bf 1d 00 00 00       	mov    $0x1d,%edi
  402c65:	e8 36 e1 ff ff       	callq  400da0 <signal@plt>
  402c6a:	ba 00 00 00 00       	mov    $0x0,%edx
  402c6f:	be 01 00 00 00       	mov    $0x1,%esi
  402c74:	bf 02 00 00 00       	mov    $0x2,%edi
  402c79:	e8 42 e2 ff ff       	callq  400ec0 <socket@plt>
  402c7e:	85 c0                	test   %eax,%eax
  402c80:	0f 88 a8 00 00 00    	js     402d2e <init_driver+0x10c>
  402c86:	89 c3                	mov    %eax,%ebx
  402c88:	be 02 00 00 00       	mov    $0x2,%esi
  402c8d:	48 8d 3d a5 0c 00 00 	lea    0xca5(%rip),%rdi        # 403939 <trans_char+0xd9>
  402c94:	e8 e7 e0 ff ff       	callq  400d80 <gethostbyname2@plt>
  402c99:	48 85 c0             	test   %rax,%rax
  402c9c:	0f 84 df 00 00 00    	je     402d81 <init_driver+0x15f>
  402ca2:	48 89 e5             	mov    %rsp,%rbp
  402ca5:	48 c7 44 24 02 00 00 	movq   $0x0,0x2(%rsp)
  402cac:	00 00 
  402cae:	c7 45 0a 00 00 00 00 	movl   $0x0,0xa(%rbp)
  402cb5:	66 c7 45 0e 00 00    	movw   $0x0,0xe(%rbp)
  402cbb:	66 c7 04 24 02 00    	movw   $0x2,(%rsp)
  402cc1:	48 63 50 14          	movslq 0x14(%rax),%rdx
  402cc5:	48 8b 40 18          	mov    0x18(%rax),%rax
  402cc9:	48 8b 30             	mov    (%rax),%rsi
  402ccc:	48 8d 7d 04          	lea    0x4(%rbp),%rdi
  402cd0:	b9 0c 00 00 00       	mov    $0xc,%ecx
  402cd5:	e8 d6 e0 ff ff       	callq  400db0 <__memmove_chk@plt>
  402cda:	66 c7 44 24 02 57 99 	movw   $0x9957,0x2(%rsp)
  402ce1:	ba 10 00 00 00       	mov    $0x10,%edx
  402ce6:	48 89 ee             	mov    %rbp,%rsi
  402ce9:	89 df                	mov    %ebx,%edi
  402ceb:	e8 a0 e1 ff ff       	callq  400e90 <connect@plt>
  402cf0:	85 c0                	test   %eax,%eax
  402cf2:	0f 88 fb 00 00 00    	js     402df3 <init_driver+0x1d1>
  402cf8:	89 df                	mov    %ebx,%edi
  402cfa:	e8 61 e0 ff ff       	callq  400d60 <close@plt>
  402cff:	66 41 c7 04 24 4f 4b 	movw   $0x4b4f,(%r12)
  402d06:	41 c6 44 24 02 00    	movb   $0x0,0x2(%r12)
  402d0c:	b8 00 00 00 00       	mov    $0x0,%eax
  402d11:	48 8b 4c 24 18       	mov    0x18(%rsp),%rcx
  402d16:	64 48 33 0c 25 28 00 	xor    %fs:0x28,%rcx
  402d1d:	00 00 
  402d1f:	0f 85 28 01 00 00    	jne    402e4d <init_driver+0x22b>
  402d25:	48 83 c4 20          	add    $0x20,%rsp
  402d29:	5b                   	pop    %rbx
  402d2a:	5d                   	pop    %rbp
  402d2b:	41 5c                	pop    %r12
  402d2d:	c3                   	retq   
  402d2e:	48 b8 45 72 72 6f 72 	movabs $0x43203a726f727245,%rax
  402d35:	3a 20 43 
  402d38:	48 ba 6c 69 65 6e 74 	movabs $0x6e7520746e65696c,%rdx
  402d3f:	20 75 6e 
  402d42:	49 89 04 24          	mov    %rax,(%r12)
  402d46:	49 89 54 24 08       	mov    %rdx,0x8(%r12)
  402d4b:	48 b8 61 62 6c 65 20 	movabs $0x206f7420656c6261,%rax
  402d52:	74 6f 20 
  402d55:	48 ba 63 72 65 61 74 	movabs $0x7320657461657263,%rdx
  402d5c:	65 20 73 
  402d5f:	49 89 44 24 10       	mov    %rax,0x10(%r12)
  402d64:	49 89 54 24 18       	mov    %rdx,0x18(%r12)
  402d69:	41 c7 44 24 20 6f 63 	movl   $0x656b636f,0x20(%r12)
  402d70:	6b 65 
  402d72:	66 41 c7 44 24 24 74 	movw   $0x74,0x24(%r12)
  402d79:	00 
  402d7a:	b8 ff ff ff ff       	mov    $0xffffffff,%eax
  402d7f:	eb 90                	jmp    402d11 <init_driver+0xef>
  402d81:	48 b8 45 72 72 6f 72 	movabs $0x44203a726f727245,%rax
  402d88:	3a 20 44 
  402d8b:	48 ba 4e 53 20 69 73 	movabs $0x6e7520736920534e,%rdx
  402d92:	20 75 6e 
  402d95:	49 89 04 24          	mov    %rax,(%r12)
  402d99:	49 89 54 24 08       	mov    %rdx,0x8(%r12)
  402d9e:	48 b8 61 62 6c 65 20 	movabs $0x206f7420656c6261,%rax
  402da5:	74 6f 20 
  402da8:	48 ba 72 65 73 6f 6c 	movabs $0x2065766c6f736572,%rdx
  402daf:	76 65 20 
  402db2:	49 89 44 24 10       	mov    %rax,0x10(%r12)
  402db7:	49 89 54 24 18       	mov    %rdx,0x18(%r12)
  402dbc:	48 b8 73 65 72 76 65 	movabs $0x6120726576726573,%rax
  402dc3:	72 20 61 
  402dc6:	49 89 44 24 20       	mov    %rax,0x20(%r12)
  402dcb:	41 c7 44 24 28 64 64 	movl   $0x65726464,0x28(%r12)
  402dd2:	72 65 
  402dd4:	66 41 c7 44 24 2c 73 	movw   $0x7373,0x2c(%r12)
  402ddb:	73 
  402ddc:	41 c6 44 24 2e 00    	movb   $0x0,0x2e(%r12)
  402de2:	89 df                	mov    %ebx,%edi
  402de4:	e8 77 df ff ff       	callq  400d60 <close@plt>
  402de9:	b8 ff ff ff ff       	mov    $0xffffffff,%eax
  402dee:	e9 1e ff ff ff       	jmpq   402d11 <init_driver+0xef>
  402df3:	48 b8 45 72 72 6f 72 	movabs $0x55203a726f727245,%rax
  402dfa:	3a 20 55 
  402dfd:	48 ba 6e 61 62 6c 65 	movabs $0x6f7420656c62616e,%rdx
  402e04:	20 74 6f 
  402e07:	49 89 04 24          	mov    %rax,(%r12)
  402e0b:	49 89 54 24 08       	mov    %rdx,0x8(%r12)
  402e10:	48 b8 20 63 6f 6e 6e 	movabs $0x7463656e6e6f6320,%rax
  402e17:	65 63 74 
  402e1a:	48 ba 20 74 6f 20 73 	movabs $0x76726573206f7420,%rdx
  402e21:	65 72 76 
  402e24:	49 89 44 24 10       	mov    %rax,0x10(%r12)
  402e29:	49 89 54 24 18       	mov    %rdx,0x18(%r12)
  402e2e:	66 41 c7 44 24 20 65 	movw   $0x7265,0x20(%r12)
  402e35:	72 
  402e36:	41 c6 44 24 22 00    	movb   $0x0,0x22(%r12)
  402e3c:	89 df                	mov    %ebx,%edi
  402e3e:	e8 1d df ff ff       	callq  400d60 <close@plt>
  402e43:	b8 ff ff ff ff       	mov    $0xffffffff,%eax
  402e48:	e9 c4 fe ff ff       	jmpq   402d11 <init_driver+0xef>
  402e4d:	e8 ce de ff ff       	callq  400d20 <__stack_chk_fail@plt>

0000000000402e52 <driver_post>:
  402e52:	53                   	push   %rbx
  402e53:	4c 89 cb             	mov    %r9,%rbx
  402e56:	45 85 c0             	test   %r8d,%r8d
  402e59:	75 18                	jne    402e73 <driver_post+0x21>
  402e5b:	48 85 ff             	test   %rdi,%rdi
  402e5e:	74 05                	je     402e65 <driver_post+0x13>
  402e60:	80 3f 00             	cmpb   $0x0,(%rdi)
  402e63:	75 37                	jne    402e9c <driver_post+0x4a>
  402e65:	66 c7 03 4f 4b       	movw   $0x4b4f,(%rbx)
  402e6a:	c6 43 02 00          	movb   $0x0,0x2(%rbx)
  402e6e:	44 89 c0             	mov    %r8d,%eax
  402e71:	5b                   	pop    %rbx
  402e72:	c3                   	retq   
  402e73:	48 89 ca             	mov    %rcx,%rdx
  402e76:	48 8d 35 d2 0a 00 00 	lea    0xad2(%rip),%rsi        # 40394f <trans_char+0xef>
  402e7d:	bf 01 00 00 00       	mov    $0x1,%edi
  402e82:	b8 00 00 00 00       	mov    $0x0,%eax
  402e87:	e8 a4 df ff ff       	callq  400e30 <__printf_chk@plt>
  402e8c:	66 c7 03 4f 4b       	movw   $0x4b4f,(%rbx)
  402e91:	c6 43 02 00          	movb   $0x0,0x2(%rbx)
  402e95:	b8 00 00 00 00       	mov    $0x0,%eax
  402e9a:	eb d5                	jmp    402e71 <driver_post+0x1f>
  402e9c:	48 83 ec 08          	sub    $0x8,%rsp
  402ea0:	41 51                	push   %r9
  402ea2:	49 89 c9             	mov    %rcx,%r9
  402ea5:	49 89 d0             	mov    %rdx,%r8
  402ea8:	48 89 f9             	mov    %rdi,%rcx
  402eab:	48 89 f2             	mov    %rsi,%rdx
  402eae:	be 99 57 00 00       	mov    $0x5799,%esi
  402eb3:	48 8d 3d 7f 0a 00 00 	lea    0xa7f(%rip),%rdi        # 403939 <trans_char+0xd9>
  402eba:	e8 4a f6 ff ff       	callq  402509 <submitr>
  402ebf:	48 83 c4 10          	add    $0x10,%rsp
  402ec3:	eb ac                	jmp    402e71 <driver_post+0x1f>

0000000000402ec5 <check>:
  402ec5:	89 f8                	mov    %edi,%eax
  402ec7:	c1 e8 1c             	shr    $0x1c,%eax
  402eca:	85 c0                	test   %eax,%eax
  402ecc:	74 1d                	je     402eeb <check+0x26>
  402ece:	b9 00 00 00 00       	mov    $0x0,%ecx
  402ed3:	83 f9 1f             	cmp    $0x1f,%ecx
  402ed6:	7f 0d                	jg     402ee5 <check+0x20>
  402ed8:	89 f8                	mov    %edi,%eax
  402eda:	d3 e8                	shr    %cl,%eax
  402edc:	3c 0a                	cmp    $0xa,%al
  402ede:	74 11                	je     402ef1 <check+0x2c>
  402ee0:	83 c1 08             	add    $0x8,%ecx
  402ee3:	eb ee                	jmp    402ed3 <check+0xe>
  402ee5:	b8 01 00 00 00       	mov    $0x1,%eax
  402eea:	c3                   	retq   
  402eeb:	b8 00 00 00 00       	mov    $0x0,%eax
  402ef0:	c3                   	retq   
  402ef1:	b8 00 00 00 00       	mov    $0x0,%eax
  402ef6:	c3                   	retq   

0000000000402ef7 <gencookie>:
  402ef7:	53                   	push   %rbx
  402ef8:	83 c7 01             	add    $0x1,%edi
  402efb:	e8 d0 dd ff ff       	callq  400cd0 <srandom@plt>
  402f00:	e8 eb de ff ff       	callq  400df0 <random@plt>
  402f05:	89 c3                	mov    %eax,%ebx
  402f07:	89 c7                	mov    %eax,%edi
  402f09:	e8 b7 ff ff ff       	callq  402ec5 <check>
  402f0e:	85 c0                	test   %eax,%eax
  402f10:	74 ee                	je     402f00 <gencookie+0x9>
  402f12:	89 d8                	mov    %ebx,%eax
  402f14:	5b                   	pop    %rbx
  402f15:	c3                   	retq   
  402f16:	66 2e 0f 1f 84 00 00 	nopw   %cs:0x0(%rax,%rax,1)
  402f1d:	00 00 00 

0000000000402f20 <__libc_csu_init>:
  402f20:	41 57                	push   %r15
  402f22:	41 56                	push   %r14
  402f24:	49 89 d7             	mov    %rdx,%r15
  402f27:	41 55                	push   %r13
  402f29:	41 54                	push   %r12
  402f2b:	4c 8d 25 de 1e 20 00 	lea    0x201ede(%rip),%r12        # 604e10 <__frame_dummy_init_array_entry>
  402f32:	55                   	push   %rbp
  402f33:	48 8d 2d de 1e 20 00 	lea    0x201ede(%rip),%rbp        # 604e18 <__init_array_end>
  402f3a:	53                   	push   %rbx
  402f3b:	41 89 fd             	mov    %edi,%r13d
  402f3e:	49 89 f6             	mov    %rsi,%r14
  402f41:	4c 29 e5             	sub    %r12,%rbp
  402f44:	48 83 ec 08          	sub    $0x8,%rsp
  402f48:	48 c1 fd 03          	sar    $0x3,%rbp
  402f4c:	e8 37 dd ff ff       	callq  400c88 <_init>
  402f51:	48 85 ed             	test   %rbp,%rbp
  402f54:	74 20                	je     402f76 <__libc_csu_init+0x56>
  402f56:	31 db                	xor    %ebx,%ebx
  402f58:	0f 1f 84 00 00 00 00 	nopl   0x0(%rax,%rax,1)
  402f5f:	00 
  402f60:	4c 89 fa             	mov    %r15,%rdx
  402f63:	4c 89 f6             	mov    %r14,%rsi
  402f66:	44 89 ef             	mov    %r13d,%edi
  402f69:	41 ff 14 dc          	callq  *(%r12,%rbx,8)
  402f6d:	48 83 c3 01          	add    $0x1,%rbx
  402f71:	48 39 dd             	cmp    %rbx,%rbp
  402f74:	75 ea                	jne    402f60 <__libc_csu_init+0x40>
  402f76:	48 83 c4 08          	add    $0x8,%rsp
  402f7a:	5b                   	pop    %rbx
  402f7b:	5d                   	pop    %rbp
  402f7c:	41 5c                	pop    %r12
  402f7e:	41 5d                	pop    %r13
  402f80:	41 5e                	pop    %r14
  402f82:	41 5f                	pop    %r15
  402f84:	c3                   	retq   
  402f85:	90                   	nop
  402f86:	66 2e 0f 1f 84 00 00 	nopw   %cs:0x0(%rax,%rax,1)
  402f8d:	00 00 00 

0000000000402f90 <__libc_csu_fini>:
  402f90:	f3 c3                	repz retq 

Disassembly of section .fini:

0000000000402f94 <_fini>:
  402f94:	48 83 ec 08          	sub    $0x8,%rsp
  402f98:	48 83 c4 08          	add    $0x8,%rsp
  402f9c:	c3                   	retq   
